Microchip MPLAB XC8 Compiler V1.38 ()

Linker command line:

-W6 --edf=C:\Program Files (x86)\Microchip\xc8\v1.38\dat\en_msgs.txt -cs \
  -h+dist/miwikit_pic18f46j50_24j40_SleepRFD/production\miwi_mesh.X.production.sym \
  --cmf=dist/miwikit_pic18f46j50_24j40_SleepRFD/production\miwi_mesh.X.production.cmf \
  -z -Q18F46J50 -oC:\Users\c17143\AppData\Local\Temp\sfng.2 \
  -Mdist/miwikit_pic18f46j50_24j40_SleepRFD/production/miwi_mesh.X.production.map \
  -E1 -ver=XC8 -ASTACK=0754h-07ffh -pstack=STACK -ACODE=00h-0FFF7h \
  -ACONST=00h-0FFF7h -ASMALLCONST=0F00h-0FFFhx240,0FF00h-0FFF7h \
  -AMEDIUMCONST=0F00h-0FFF7h -ACOMRAM=01h-05Fh -AABS1=00h-0EBFh \
  -ABIGRAM=01h-0EBFh -ARAM=060h-0FFh,0100h-01FFhx13,0E00h-0EBFh \
  -ABANK0=060h-0FFh -ABANK1=0100h-01FFh -ABANK2=0200h-02FFh \
  -ABANK3=0300h-03FFh -ABANK4=0400h-04FFh -ABANK5=0500h-05FFh \
  -ABANK6=0600h-06FFh -ABANK7=0700h-07FFh -ABANK8=0800h-08FFh \
  -ABANK9=0900h-09FFh -ABANK10=0A00h-0AFFh -ABANK11=0B00h-0BFFh \
  -ABANK12=0C00h-0CFFh -ABANK13=0D00h-0DFFh -ABANK14=0E00h-0EBFh \
  -ASFR=0EC0h-0EFFh,0F00h-0F5Fh,0F60h-0FFFh \
  -preset_vec=00h,intcode=08h,intcodelo,powerup,init,end_init \
  -pramtop=0F00h -psmallconst=SMALLCONST -pmediumconst=MEDIUMCONST \
  -pconst=CONST -AFARRAM=00h-00h -ACONFIG=0FFF8h-0FFFFh -pconfig=CONFIG \
  -pjflash_buffer=0F800h \
  -prdata=COMRAM,nvrram=COMRAM,nvbit=COMRAM,rbss=COMRAM,rbit=COMRAM \
  -pfarbss=FARRAM,fardata=FARRAM,nvFARRAM=FARRAM \
  -pintsave_regs=BIGRAM,bigbss=BIGRAM,bigdata=BIGRAM -pbss=RAM \
  -pidata=CODE,irdata=CODE,ibigdata=CODE,ifardata=CODE -prparam=COMRAM \
  C:\Users\c17143\AppData\Local\Temp\sfng.obj \
  dist/miwikit_pic18f46j50_24j40_SleepRFD/production\miwi_mesh.X.production.obj 

Object code version is 3.11

Machine type is 18F46J50

Call graph: (short form)




                Name                               Link     Load   Length Selector   Space Scale
C:\Users\c17143\AppData\Local\Temp\sfng.obj
                end_init                            47C      47C        4        4       0
                reset_vec                             0        0        4        0       0
                config                             FFF8     FFF8        8     FFF8       0
dist/miwikit_pic18f46j50_24j40_SleepRFD/production\miwi_mesh.X.production.obj
                intcode                               8        8      474        4       0
                temp                                 5E       5E        1        1       1
                mediumconst                        FB7E     FB7E      47A     7DBF       0
                text175                            7B76     7B76       16        4       0
                text174                            7C58     7C58        A        4       0
                text173                            7272     7272       50        4       0
                text172                            78EC     78EC       2A        4       0
                text171                            7222     7222       50        4       0
                text170                            7916     7916       28        4       0
                text169                            7CB4     7CB4        4     3E36       0
                text168                            7178     7178       56        4       0
                text167                            79AE     79AE       22        4       0
                text165                            746E     746E       44        4       0
                text164                            7716     7716       36        4       0
                text163                            6D8C     6D8C       62        4       0
                text162                            6436     6436       90        4       0
                text161                            7B60     7B60       16        4       0
                text160                            7896     7896       2C        4       0
                text159                            63A0     63A0       96        4       0
                text158                            7AC4     7AC4       18        4       0
                text157                            7B4A     7B4A       16        4       0
                text156                            5552     5552      124        4       0
                text155                            7B34     7B34       16        4       0
                text154                            5E7A     5E7A       B6        4       0
                text153                            1D24     1D24      34A        4       0
                text152                            7A7A     7A7A       1A        4       0
                text151                            7868     7868       2E        4       0
                text150                            75F4     75F4       3E        4       0
                text149                            7122     7122       56        4       0
                text148                            7CB0     7CB0        4     3E36       0
                text147                            7CAC     7CAC        4     3E36       0
                text146                            6FC4     6FC4       5C        4       0
                text145                            6BFA     6BFA       68        4       0
                text144                            70CC     70CC       56        4       0
                text143                            742A     742A       44        4       0
                text142                            7C06     7C06        C        4       0
                text141                            7CA8     7CA8        4     3E36       0
                text140                            7CA4     7CA4        4     3E36       0
                text139                            7CA0     7CA0        4     3E36       0
                text138                            7C9C     7C9C        4     3E36       0
                text137                            76E0     76E0       36        4       0
                text136                            6D2A     6D2A       62        4       0
                text135                            44EC     44EC      18C        4       0
                text134                            68DE     68DE       78        4       0
                text133                            7B1E     7B1E       16        4       0
                text132                            7A0C     7A0C       1E        4       0
                text131                            78C2     78C2       2A        4       0
                text130                            7AAC     7AAC       18        4       0
                text129                            7A94     7A94       18        4       0
                text128                            7A60     7A60       1A        4       0
                text127                            7BFA     7BFA        C        4       0
                text126                            783A     783A       2E        4       0
                text125                            7B08     7B08       16        4       0
                text124                            7AF2     7AF2       16        4       0
                text123                            577C     577C      106        4       0
                text122                            6084     6084       A4        4       0
                text121                            7BB4     7BB4       14        4       0
                text120                            7A2A     7A2A       1C        4       0
                text119                            7076     7076       56        4       0
                text118                            7536     7536       42        4       0
                text117                            7ADC     7ADC       16        4       0
                text116                            74F4     74F4       42        4       0
                text115                            7C98     7C98        4     3E36       0
                text114                            7C94     7C94        4     3E36       0
                text113                            7C4E     7C4E        A        4       0
                text112                            7020     7020       56        4       0
                text111                            77AE     77AE       30        4       0
                text110                            3FFE     3FFE      1A8        4       0
                text109                            766E     766E       3C        4       0
                text108                            5CFE     5CFE       C2        4       0
                text107                            66E6     66E6       84        4       0
                text106                            7C44     7C44        A        4       0
                text105                            6B92     6B92       68        4       0
                text104                            780C     780C       2E        4       0
                text103                            7C3A     7C3A        A        4       0
                text102                            7BEE     7BEE        C        4       0
                text101                            7C7A     7C7A        6     3E36       0
                text100                            5A62     5A62       E4        4       0
                text99                             7BE2     7BE2        C        4       0
                text98                             7C74     7C74        6     3E36       0
                text97                             71CE     71CE       54        4       0
                text96                             798A     798A       24        4       0
                text95                             67EA     67EA       7C        4       0
                text94                             5DC0     5DC0       BA        4       0
                text93                             7C90     7C90        4     3E36       0
                text92                             1182     1182      408        4       0
                text91                             6268     6268       9E        4       0
                text90                             6F68     6F68       5C        4       0
                text89                             6306     6306       9A        4       0
                text88                             7C8C     7C8C        4     3E36       0
                text87                             7C88     7C88        4     3E36       0
                text86                             7C6C     7C6C        8     3E36       0
                text85                             3C88     3C88      1C8        4       0
                text84                             7A46     7A46       1A        4       0
                text83                              C3C      C3C      546        4       0
                text82                             676A     676A       80        4       0
                text81                             76AA     76AA       36        4       0
                text80                             730E     730E       4A        4       0
                text79                             75B6     75B6       3E        4       0
                text78                             4802     4802      182        4       0
                text77                             6CC6     6CC6       64        4       0
                text76                             69CC     69CC       76        4       0
                text75                             6F0A     6F0A       5E        4       0
                text74                             3694     3694      23A        4       0
                text73                             5B46     5B46       E2        4       0
                text72                             38CE     38CE      1F0        4       0
                text71                             7CBE     7CBE        2     3E36       0
                text70                             7C30     7C30        A        4       0
                text69                             7C84     7C84        4     3E36       0
                text68                             6EAC     6EAC       5E        4       0
                text67                             73E4     73E4       46        4       0
                text66                             739E     739E       46        4       0
                text65                             7CBC     7CBC        2     3E36       0
                text64                             7CBA     7CBA        2     3E36       0
                text63                             7BC8     7BC8        E        4       0
                text62                             206E     206E      32A        4       0
                text61                             7358     7358       46        4       0
                text60                             158A     158A      3F6        4       0
                text59                             2398     2398      324        4       0
                text58                             774C     774C       32        4       0
                text57                             777E     777E       30        4       0
                text56                             7BD6     7BD6        C        4       0
                text55                             7C26     7C26        A        4       0
                text54                             6662     6662       84        4       0
                text53                             5972     5972       F0        4       0
                text52                             72C2     72C2       4C        4       0
                text51                             3ABE     3ABE      1CA        4       0
                text50                             51CA     51CA      13E        4       0
                text49                             65DE     65DE       84        4       0
                text48                             6956     6956       76        4       0
                text47                             6866     6866       78        4       0
                text46                             7578     7578       3E        4       0
                text45                             6DEE     6DEE       60        4       0
                text44                             29C8     29C8      2BC        4       0
                text43                             4DDA     4DDA      160        4       0
                text42                             4C6C     4C6C      16E        4       0
                text41                             434A     434A      1A2        4       0
                text40                             7C1C     7C1C        A        4       0
                text39                             41A6     41A6      1A4        4       0
                text38                             6E4E     6E4E       5E        4       0
                text37                             6554     6554       8A        4       0
                text36                             4678     4678      18A        4       0
                text35                             7BA0     7BA0       14        4       0
                text34                             7632     7632       3C        4       0
                text33                             5882     5882       F0        4       0
                text32                             64C6     64C6       8E        4       0
                text31                             6A42     6A42       74        4       0
                text30                             4F3A     4F3A      14A        4       0
                text29                             4AFC     4AFC      170        4       0
                text28                             61CA     61CA       9E        4       0
                text27                             26BC     26BC      30C        4       0
                text26                             6C62     6C62       64        4       0
                text25                             2F2A     2F2A      28E        4       0
                text24                             6AB6     6AB6       70        4       0
                text23                             5F30     5F30       AE        4       0
                text22                             7CB8     7CB8        2     3E36       0
                text21                             5084     5084      146        4       0
                text20                             4984     4984      178        4       0
                text19                             3426     3426      26E        4       0
                text18                             5FDE     5FDE       A6        4       0
                text17                             31B8     31B8      26E        4       0
                text16                             7C80     7C80        4     3E36       0
                text15                              480      480      7BC        4       0
                text14                             5676     5676      106        4       0
                text13                             6B26     6B26       6C        4       0
                text12                             542E     542E      124        4       0
                text11                             5308     5308      126        4       0
                text10                             7B8C     7B8C       14        4       0
                text9                              3E50     3E50      1AE        4       0
                text8                              74B2     74B2       42        4       0
                text7                              7C12     7C12        A        4       0
                text6                              77DE     77DE       2E        4       0
                text5                              6128     6128       A2        4       0
                text4                              7964     7964       26        4       0
                text3                              793E     793E       26        4       0
                text2                              79EE     79EE       1E        4       0
                text1                              2C84     2C84      2A6        4       0
                text0                              1980     1980      3A4        4       0
                cstackCOMRAM                          1        1       35        1       1
                cstackBANK0                          60       60       9E       60       1
                cstackBANK1                         100      100       D9      100       1
                cstackBANK3                         3DA      3DA       22      300       1
                bssBIGRAM                           8D2      8D2      5CC      8D2       1
                bssBANK8                            800      800       D2      800       1
                bssBANK7                            700      700       54      700       1
                bssBANK6                            600      600       F0      600       1
                bssBANK5                            500      500       D8      500       1
                bssBANK4                            400      400      100      400       1
                bssBANK3                            300      300       DA      300       1
                dataBANK2                           2DD      2DD       1E      200       1
                bssBANK2                            200      200       DD      200       1
                bssBANK1                            1D9      1D9        C      100       1
                dataCOMRAM                           55       55        9        1       1
                bssCOMRAM                            36       36       1F        1       1
                cinit                              5C28     5C28       D6        4       0
                nvBANK1                             1E5      1E5        1      100       1
                idataBANK2                         79D0     79D0       1E        4       0
                idataCOMRAM                        7C62     7C62        9        4       0

TOTAL           Name                               Link     Load   Length     Space
        CLASS   STACK          

        CLASS   CODE           
                end_init                            47C      47C        4         0
                intcode                               8        8      474         0
                reset_vec                             0        0        4         0
                text175                            7B76     7B76       16         0
                text174                            7C58     7C58        A         0
                text173                            7272     7272       50         0
                text172                            78EC     78EC       2A         0
                text171                            7222     7222       50         0
                text170                            7916     7916       28         0
                text169                            7CB4     7CB4        4         0
                text168                            7178     7178       56         0
                text167                            79AE     79AE       22         0
                text165                            746E     746E       44         0
                text164                            7716     7716       36         0
                text163                            6D8C     6D8C       62         0
                text162                            6436     6436       90         0
                text161                            7B60     7B60       16         0
                text160                            7896     7896       2C         0
                text159                            63A0     63A0       96         0
                text158                            7AC4     7AC4       18         0
                text157                            7B4A     7B4A       16         0
                text156                            5552     5552      124         0
                text155                            7B34     7B34       16         0
                text154                            5E7A     5E7A       B6         0
                text153                            1D24     1D24      34A         0
                text152                            7A7A     7A7A       1A         0
                text151                            7868     7868       2E         0
                text150                            75F4     75F4       3E         0
                text149                            7122     7122       56         0
                text148                            7CB0     7CB0        4         0
                text147                            7CAC     7CAC        4         0
                text146                            6FC4     6FC4       5C         0
                text145                            6BFA     6BFA       68         0
                text144                            70CC     70CC       56         0
                text143                            742A     742A       44         0
                text142                            7C06     7C06        C         0
                text141                            7CA8     7CA8        4         0
                text140                            7CA4     7CA4        4         0
                text139                            7CA0     7CA0        4         0
                text138                            7C9C     7C9C        4         0
                text137                            76E0     76E0       36         0
                text136                            6D2A     6D2A       62         0
                text135                            44EC     44EC      18C         0
                text134                            68DE     68DE       78         0
                text133                            7B1E     7B1E       16         0
                text132                            7A0C     7A0C       1E         0
                text131                            78C2     78C2       2A         0
                text130                            7AAC     7AAC       18         0
                text129                            7A94     7A94       18         0
                text128                            7A60     7A60       1A         0
                text127                            7BFA     7BFA        C         0
                text126                            783A     783A       2E         0
                text125                            7B08     7B08       16         0
                text124                            7AF2     7AF2       16         0
                text123                            577C     577C      106         0
                text122                            6084     6084       A4         0
                text121                            7BB4     7BB4       14         0
                text120                            7A2A     7A2A       1C         0
                text119                            7076     7076       56         0
                text118                            7536     7536       42         0
                text117                            7ADC     7ADC       16         0
                text116                            74F4     74F4       42         0
                text115                            7C98     7C98        4         0
                text114                            7C94     7C94        4         0
                text113                            7C4E     7C4E        A         0
                text112                            7020     7020       56         0
                text111                            77AE     77AE       30         0
                text110                            3FFE     3FFE      1A8         0
                text109                            766E     766E       3C         0
                text108                            5CFE     5CFE       C2         0
                text107                            66E6     66E6       84         0
                text106                            7C44     7C44        A         0
                text105                            6B92     6B92       68         0
                text104                            780C     780C       2E         0
                text103                            7C3A     7C3A        A         0
                text102                            7BEE     7BEE        C         0
                text101                            7C7A     7C7A        6         0
                text100                            5A62     5A62       E4         0
                text99                             7BE2     7BE2        C         0
                text98                             7C74     7C74        6         0
                text97                             71CE     71CE       54         0
                text96                             798A     798A       24         0
                text95                             67EA     67EA       7C         0
                text94                             5DC0     5DC0       BA         0
                text93                             7C90     7C90        4         0
                text92                             1182     1182      408         0
                text91                             6268     6268       9E         0
                text90                             6F68     6F68       5C         0
                text89                             6306     6306       9A         0
                text88                             7C8C     7C8C        4         0
                text87                             7C88     7C88        4         0
                text86                             7C6C     7C6C        8         0
                text85                             3C88     3C88      1C8         0
                text84                             7A46     7A46       1A         0
                text83                              C3C      C3C      546         0
                text82                             676A     676A       80         0
                text81                             76AA     76AA       36         0
                text80                             730E     730E       4A         0
                text79                             75B6     75B6       3E         0
                text78                             4802     4802      182         0
                text77                             6CC6     6CC6       64         0
                text76                             69CC     69CC       76         0
                text75                             6F0A     6F0A       5E         0
                text74                             3694     3694      23A         0
                text73                             5B46     5B46       E2         0
                text72                             38CE     38CE      1F0         0
                text71                             7CBE     7CBE        2         0
                text70                             7C30     7C30        A         0
                text69                             7C84     7C84        4         0
                text68                             6EAC     6EAC       5E         0
                text67                             73E4     73E4       46         0
                text66                             739E     739E       46         0
                text65                             7CBC     7CBC        2         0
                text64                             7CBA     7CBA        2         0
                text63                             7BC8     7BC8        E         0
                text62                             206E     206E      32A         0
                text61                             7358     7358       46         0
                text60                             158A     158A      3F6         0
                text59                             2398     2398      324         0
                text58                             774C     774C       32         0
                text57                             777E     777E       30         0
                text56                             7BD6     7BD6        C         0
                text55                             7C26     7C26        A         0
                text54                             6662     6662       84         0
                text53                             5972     5972       F0         0
                text52                             72C2     72C2       4C         0
                text51                             3ABE     3ABE      1CA         0
                text50                             51CA     51CA      13E         0
                text49                             65DE     65DE       84         0
                text48                             6956     6956       76         0
                text47                             6866     6866       78         0
                text46                             7578     7578       3E         0
                text45                             6DEE     6DEE       60         0
                text44                             29C8     29C8      2BC         0
                text43                             4DDA     4DDA      160         0
                text42                             4C6C     4C6C      16E         0
                text41                             434A     434A      1A2         0
                text40                             7C1C     7C1C        A         0
                text39                             41A6     41A6      1A4         0
                text38                             6E4E     6E4E       5E         0
                text37                             6554     6554       8A         0
                text36                             4678     4678      18A         0
                text35                             7BA0     7BA0       14         0
                text34                             7632     7632       3C         0
                text33                             5882     5882       F0         0
                text32                             64C6     64C6       8E         0
                text31                             6A42     6A42       74         0
                text30                             4F3A     4F3A      14A         0
                text29                             4AFC     4AFC      170         0
                text28                             61CA     61CA       9E         0
                text27                             26BC     26BC      30C         0
                text26                             6C62     6C62       64         0
                text25                             2F2A     2F2A      28E         0
                text24                             6AB6     6AB6       70         0
                text23                             5F30     5F30       AE         0
                text22                             7CB8     7CB8        2         0
                text21                             5084     5084      146         0
                text20                             4984     4984      178         0
                text19                             3426     3426      26E         0
                text18                             5FDE     5FDE       A6         0
                text17                             31B8     31B8      26E         0
                text16                             7C80     7C80        4         0
                text15                              480      480      7BC         0
                text14                             5676     5676      106         0
                text13                             6B26     6B26       6C         0
                text12                             542E     542E      124         0
                text11                             5308     5308      126         0
                text10                             7B8C     7B8C       14         0
                text9                              3E50     3E50      1AE         0
                text8                              74B2     74B2       42         0
                text7                              7C12     7C12        A         0
                text6                              77DE     77DE       2E         0
                text5                              6128     6128       A2         0
                text4                              7964     7964       26         0
                text3                              793E     793E       26         0
                text2                              79EE     79EE       1E         0
                text1                              2C84     2C84      2A6         0
                text0                              1980     1980      3A4         0
                cinit                              5C28     5C28       D6         0
                idataBANK2                         79D0     79D0       1E         0
                idataCOMRAM                        7C62     7C62        9         0

        CLASS   CONST          

        CLASS   SMALLCONST     

        CLASS   MEDIUMCONST    
                mediumconst                        FB7E     FB7E      47A         0

        CLASS   COMRAM         
                temp                                 5E       5E        1         1
                cstackCOMRAM                          1        1       35         1
                dataCOMRAM                           55       55        9         1
                bssCOMRAM                            36       36       1F         1

        CLASS   ABS1           

        CLASS   BIGRAM         
                bssBIGRAM                           8D2      8D2      5CC         1

        CLASS   RAM            

        CLASS   BANK0          
                cstackBANK0                          60       60       9E         1

        CLASS   BANK1          
                cstackBANK1                         100      100       D9         1
                bssBANK1                            1D9      1D9        C         1
                nvBANK1                             1E5      1E5        1         1

        CLASS   BANK2          
                dataBANK2                           2DD      2DD       1E         1
                bssBANK2                            200      200       DD         1

        CLASS   BANK3          
                cstackBANK3                         3DA      3DA       22         1
                bssBANK3                            300      300       DA         1

        CLASS   BANK4          
                bssBANK4                            400      400      100         1

        CLASS   BANK5          
                bssBANK5                            500      500       D8         1

        CLASS   BANK6          
                bssBANK6                            600      600       F0         1

        CLASS   BANK7          
                bssBANK7                            700      700       54         1

        CLASS   BANK8          
                bssBANK8                            800      800       D2         1

        CLASS   BANK9          

        CLASS   BANK10         

        CLASS   BANK11         

        CLASS   BANK12         

        CLASS   BANK13         

        CLASS   BANK14         

        CLASS   SFR            

        CLASS   FARRAM         

        CLASS   CONFIG         
                config                             FFF8     FFF8        8         0

        CLASS   IDLOC          



SEGMENTS        Name                           Load    Length   Top    Selector   Space  Class

                reset_vec                      000000  000004  000004         0       0  CODE    
                cstackCOMRAM                   000001  00005E  00005F         1       1  COMRAM  
                intcode                        000008  007C63  007C6B         4       0  CODE    
                cstackBANK0                    000060  00009E  0000FE        60       1  BANK0   
                cstackBANK1                    000100  0000E6  0001E6       100       1  BANK1   
                bssBANK2                       000200  0000FB  0002FB       200       1  BANK2   
                bssBANK3                       000300  0000FC  0003FC       300       1  BANK3   
                bssBANK4                       000400  000100  000500       400       1  BANK4   
                bssBANK5                       000500  0000D8  0005D8       500       1  BANK5   
                bssBANK6                       000600  0000F0  0006F0       600       1  BANK6   
                bssBANK7                       000700  000054  000754       700       1  BANK7   
                bssBANK8                       000800  0000D2  0008D2       800       1  BANK8   
                bssBIGRAM                      0008D2  0005CC  000E9E       8D2       1  BIGRAM  
                text86                         007C6C  000054  007CC0      3E36       0  CODE    
                mediumconst                    00FB7E  00047A  00FFF8      7DBF       0  MEDIUMCO
                config                         00FFF8  000008  010000      FFF8       0  CONFIG  


UNUSED ADDRESS RANGES

        Name                Unused          Largest block    Delta
        BANK0            000FE-000FF               2
        BANK1            001E6-001FF              1A
        BANK14           00E9E-00EBF              22
        BANK2            002FB-002FF               5
        BANK3            003FC-003FF               4
        BANK5            005D8-005FF              28
        BANK6            006F0-006FF              10
        BANK7            00754-007FF              AC
        BIGRAM           0005F-0005F               1
                         000FE-000FF               2
                         001E6-001FF              1A
                         002FB-002FF               5
                         003FC-003FF               4
                         005D8-005FF              28
                         006F0-006FF              10
                         00754-007FF              AC
                         00E9E-00EBF              22
        CODE             00004-00007               4
                         07C6B-07C6B               1
                         07CC0-0FB7D            7EBE
        COMRAM           0005F-0005F               1
        CONST            00004-00007               4
                         07C6B-07C6B               1
                         07CC0-0FB7D            7EBE
        MEDIUMCONST      07C6B-07C6B               1
                         07CC0-0FB7D            7EBE
        RAM              000FE-000FF               2
                         001E6-001FF              1A
                         002FB-002FF               5
                         003FC-003FF               4
                         005D8-005FF              28
                         006F0-006FF              10
                         00754-007FF              AC
                         00E9E-00EBF              22
        SFR              00EC0-00FFF              60
        SMALLCONST       07C6B-07C6B               1
                         07CC0-0FB7D             100
        STACK            00754-007FF              AC

                                  Symbol Table

?_AddMSToTick                                    cstackBANK0   0007C
?_CoordinatorAddress                             cstackBANK0   00060
?_CoordinatorGenericAddress                      cstackBANK0   00068
?_DeviceManagerGetDeviceData                     cstackBANK0   00080
?_GetRouteAddressOfChild                         cstackBANK0   00096
?_LEAppendNeighborInfo                           cstackBANK0   00071
?_LELinkQualityGet                               cstackBANK0   0008A
?_MSTickGet                                      cstackBANK0   0006C
?_MSTickGetDiffNow                               cstackBANK0   0007C
?_MiApp_GetParentAddress                         cstackBANK0   00068
?_MiWi_TickGet                                   cstackBANK0   00060
?_MiWi_TickGetMs                                 cstackBANK0   0006C
?_NetworkGetMyRouteInfo                          cstackBANK0   00060
?_NetworkGetPANID                                cstackBANK0   00060
?_NetworkGetParentAddress                        cstackBANK0   00060
?_NetworkManagerGetMyAddress                     cstackBANK0   00060
?_NetworkPrepareSendPacket                       cstackBANK0   00070
?_RMRoutingTableCount                            cstackBANK0   00060
?_Read_MAC_Address                               cstackBANK0   0006C
?_RoutingTableFindDeviceOrParent                 cstackBANK0   00080
?_TunnelManagerGetTunnel                         cstackBANK0   00098
?___awdiv                                        cstackBANK0   00060
?___lldiv                                        cstackBANK0   00060
?___llmod                                        cstackBANK0   0006C
?___lwdiv                                        cstackBANK0   00060
?___lwmod                                        cstackBANK0   0006C
?___wmul                                         cstackBANK0   00060
?_crc32                                          cstackBANK0   00060
?_krnd                                           cstackBANK0   00060
?_le_computeETX                                  cstackBANK0   00068
?_le_findEmptyNeighborIdx                        cstackBANK0   00060
?_le_findRandomNeighborIdx                       cstackBANK0   00080
?_le_findWorstNeighborIdx                        cstackBANK0   00080
?_memcmp                                         cstackBANK0   00060
?_sprintf                                        cstackBANK0   00067
?i2_memcmp                                       cstackCOMRAM  00001
AddMSToTick@ms                                   cstackBANK0   00084
AddMSToTick@tick                                 cstackBANK0   0007C
AddNodeToNetworkTable@PANID                      cstackBANK0   00088
AddNodeToNetworkTable@address                    cstackBANK0   00080
AddNodeToNetworkTable@i                          cstackBANK0   00090
AddNodeToNetworkTable@ind                        cstackBANK0   0008E
BroadcastManagerDelaySend@i                      cstackBANK0   00099
BroadcastManagerDelaySend@isInterPan             cstackBANK0   00091
BroadcastManagerDelaySend@isSecure               cstackBANK0   00090
BroadcastManagerDelaySend@pkt                    cstackBANK0   0008C
BroadcastManagerDelaySend@res                    cstackBANK0   00098
BroadcastManagerDelaySend@size                   cstackBANK0   0008E
BroadcastManagerTask@PANID                       cstackBANK0   000B0
BroadcastManagerTask@i                           cstackBANK0   000B2
ButtonTask@Sw                                    cstackBANK0   00074
ButtonTask@pS0                                   bssCOMRAM     0003B
ButtonTask@pS1                                   bssCOMRAM     0003C
ButtonTask@s0Count                               bssCOMRAM     0003D
ButtonTask@s1Count                               bssCOMRAM     0003E
CoordinatorGenericAddress@address                bssBANK2      0029D
DelayMs@ms                                       cstackBANK0   00068
DelayUS@delay                                    cstackBANK0   00060
DelayUS@i                                        cstackBANK0   00064
DeviceManagerBufferDeviceData@address            cstackBANK0   0006C
DeviceManagerBufferDeviceData@data               cstackBANK0   00074
DeviceManagerBufferDeviceData@empty              cstackBANK0   0007F
DeviceManagerBufferDeviceData@isFormed           cstackBANK0   00079
DeviceManagerBufferDeviceData@isSecure           cstackBANK0   00078
DeviceManagerBufferDeviceData@size               cstackBANK0   00076
DeviceManagerGetDeviceData@address               cstackBANK0   00080
DeviceManagerGetDeviceData@data                  cstackBANK0   00088
DeviceManagerGetDeviceData@isFormed              cstackBANK0   0008C
DeviceManagerGetDeviceData@isSecure              cstackBANK0   0008A
DeviceManagerGetDeviceType@address               cstackBANK0   00080
DeviceManagerGetDeviceType@dev                   cstackBANK0   0008A
DeviceManagerGetDeviceType@i                     cstackBANK0   0008B
EEPROMRead@addr                                  cstackBANK0   00063
EEPROMRead@count                                 cstackBANK0   00064
EEPROMRead@dest                                  cstackBANK0   00062
GetRouteAddressOfChild@child                     cstackBANK0   00096
GetRouteAddressOfChild@i                         cstackBANK0   000A6
GetRouteAddressOfChild@res                       cstackBANK0   0009E
HighISR@DecryptionStatus                         cstackCOMRAM  0002B
HighISR@FrameControl                             cstackCOMRAM  0002D
HighISR@FrameControl_2711                        cstackCOMRAM  0002E
HighISR@RxBank                                   cstackCOMRAM  00033
HighISR@flags                                    cstackCOMRAM  0002F
HighISR@i                                        cstackCOMRAM  00035
HighISR@j                                        cstackCOMRAM  00034
HighISR@results                                  cstackCOMRAM  0002A
HighISR@tmr                                      cstackCOMRAM  00031
HighISR@v                                        cstackCOMRAM  0002C
InitMRF24J40@i                                   cstackBANK0   0006B
InitMRF24J40@j                                   cstackBANK0   0006C
IsNetworkDevice@address                          cstackBANK0   00081
IsNetworkDevice@devType                          cstackBANK0   00089
IsNetworkDevice@empty                            cstackBANK0   00095
IsNetworkDevice@i                                cstackBANK0   00097
IsNetworkDevice@oldest                           cstackBANK0   0008C
IsNetworkDevice@res                              cstackBANK0   00094
LCDUpdate@i                                      cstackBANK0   00074
LCD_WriteCmd@data                                cstackBANK0   00062
LCD_WriteData@data                               cstackBANK0   00062
LEAppendNeighborInfo@cnt                         cstackBANK0   00077
LEAppendNeighborInfo@count                       cstackBANK0   0007B
LEAppendNeighborInfo@data                        cstackBANK0   00071
LEAppendNeighborInfo@i                           cstackBANK0   0007D
LEAppendNeighborInfo@j                           cstackBANK0   0007F
LEAppendNeighborInfo@k                           cstackBANK0   00081
LEAppendNeighborInfo@newPrevSentIdx              cstackBANK0   00079
LEAppendNeighborInfo@size                        cstackBANK0   00073
LEDCommand@cmd                                   cstackBANK0   00060
LEDCommand@led                                   cstackBANK0   00062
LEDManagerTask@i                                 cstackBANK0   0007E
LEDManagerTask@lNextState                        bssBANK2      00254
LEDManagerTask@tStart                            bssBANK2      00200
LELinkQualityGet@address                         cstackBANK0   0008A
LELinkQualityGet@idx                             cstackBANK0   00098
LELinkQualityGet@offset                          cstackBANK0   00092
LELinkQualityGet@res                             cstackBANK0   00096
LE_ClearDLQ@ne                                   cstackBANK0   00095
LE_ClearDLQ@neighbor                             cstackBANK0   0008A
LE_ClearDLQ@nidx                                 cstackBANK0   00097
LE_GetNeighborDeviceType@dev                     cstackBANK0   00065
LE_GetNeighborDeviceType@index                   cstackBANK0   00060
LE_InsertNeighbor@devType                        cstackBANK0   000A4
LE_InsertNeighbor@neighbor                       cstackBANK0   0009C
LE_InsertNeighbor@nidx                           cstackBANK0   000A7
LE_PinNeighbor@neighbor                          cstackBANK0   0008A
LE_PinNeighbor@nidx                              cstackBANK0   00095
LE_RemoveNeighborDevice@device                   cstackBANK0   0009C
LE_RemoveNeighborDevice@i                        cstackBANK0   000A6
LE_UnpinNeighbor@neighbor                        cstackBANK0   0008A
LE_UnpinNeighbor@nidx                            cstackBANK0   00095
LE_processReceivedMessage@bhdr                   cstackBANK0   000A7
LE_processReceivedMessage@data                   cstackBANK0   0009F
LE_processReceivedMessage@hdr                    cstackBANK0   000A5
LE_processReceivedMessage@len                    cstackBANK0   000A1
LE_processReceivedMessage@ll_addr                cstackBANK0   000A9
LE_processReceivedMessage@nidx                   cstackBANK0   000B1
LE_processReceivedMessage@rssi                   cstackBANK0   000A2
LE_processReceivedMessage@source                 cstackBANK0   0009D
MSTickGet@tNow                                   cstackBANK0   00074
MSTickGetDiffNow@diff                            cstackBANK0   00084
MSTickGetDiffNow@tNow                            cstackBANK0   00088
MSTickGetDiffNow@tdiff                           cstackBANK0   00090
MSTickGetDiffNow@tick                            cstackBANK0   0007C
MiApp_EstablishConnection@ActiveScanIndex        cstackBANK0   00097
MiApp_EstablishConnection@Mode                   cstackBANK0   0008D
MiApp_EstablishConnection@dev                    cstackBANK0   0008E
MiApp_EstablishConnection@src                    cstackBANK0   0008F
MiApp_MessageAvailable@src                       cstackBANK1   001B4
MiApp_MessageAvailable@tStart                    bssBANK2      00234
MiApp_ProtocolInit@initValue                     cstackBANK0   00083
MiApp_SearchConnection@ChannelMap                cstackBANK1   001BC
MiApp_SearchConnection@ScanDuartion              cstackBANK1   001CC
MiApp_SearchConnection@i                         cstackBANK1   001D4
MiApp_SearchConnection@mask                      cstackBANK1   001CF
MiApp_SearchConnection@msDuration                cstackBANK1   001CD
MiApp_SearchConnection@res                       cstackBANK1   001D3
MiApp_SearchConnection@tStart                    cstackBANK1   001C8
MiApp_SetAddressPan@addr                         cstackBANK0   0007A
MiApp_SetAddressPan@address                      cstackBANK0   00076
MiApp_SetAddressPan@panid                        cstackBANK0   00078
MiApp_SetChannel@Channel                         cstackBANK0   0006A
MiApp_TransceiverPowerState@Mode                 cstackBANK0   0007F
MiApp_UnicastAddress@DestinationAddress          cstackBANK0   000F9
MiApp_UnicastAddress@Origin                      cstackBANK0   000FB
MiApp_UnicastAddress@SecEn                       cstackBANK0   000FD
MiApp_UnicastAddress@src                         cstackBANK1   00140
MiMAC_ChannelAssessment@RSSIcheck                cstackBANK0   00068
MiMAC_Init@i                                     cstackBANK0   00079
MiMAC_Init@initValue                             cstackBANK0   00074
MiMAC_Init@seed                                  cstackBANK0   00077
MiMAC_PowerState@PowerState                      cstackBANK0   00074
MiMAC_PowerState@results                         cstackBANK0   00079
MiMAC_PowerState@t1                              cstackBANK0   00075
MiMAC_PowerState@t2                              cstackBANK0   0007A
MiMAC_ReceivedPacket@addrMode                    cstackBANK0   00071
MiMAC_ReceivedPacket@bIntraPAN                   cstackBANK0   00073
MiMAC_ReceivedPacket@i                           cstackBANK0   00072
MiMAC_SendPacket@IntraPAN                        cstackBANK0   0008B
MiMAC_SendPacket@MACPayload                      cstackBANK0   0007B
MiMAC_SendPacket@MACPayloadLen                   cstackBANK0   0007D
MiMAC_SendPacket@headerLength                    cstackBANK0   0008C
MiMAC_SendPacket@i                               cstackBANK0   0008D
MiMAC_SendPacket@loc                             cstackBANK0   0008E
MiMAC_SendPacket@t1                              cstackBANK0   00083
MiMAC_SendPacket@t2                              cstackBANK0   00087
MiMAC_SendPacket@transParam                      cstackBANK0   00074
MiMAC_SetAltAddress@Address                      cstackBANK0   0006C
MiMAC_SetAltAddress@PANID                        cstackBANK0   0006E
MiMAC_SetChannel@channel                         cstackBANK0   00069
MiMAC_SetChannel@offsetFreq                      cstackBANK0   00068
MiWi_TickGet@t1ext                               cstackBANK0   00064
MiWi_TickGet@tmrval                              cstackBANK0   00068
MiWi_TickGetMs@tnow                              cstackBANK0   00070
NetworkDataArrivedEvent@data                     cstackBANK0   00070
NetworkDataArrivedEvent@isBroadcast              cstackBANK0   00074
NetworkDataArrivedEvent@size                     cstackBANK0   00072
NetworkDataArrivedEvent@source                   cstackBANK0   00068
NetworkDiscoveredEvent@PANID                     cstackBANK0   00060
NetworkDiscoveredEvent@empty                     cstackBANK0   00068
NetworkDiscoveredEvent@i                         cstackBANK0   0006A
NetworkDiscoveredEvent@rssi                      cstackBANK0   00062
NetworkHasRoute@res                              cstackBANK0   00082
NetworkInit@PANID                                cstackBANK0   00088
NetworkInit@address                              cstackBANK0   00080
NetworkInit@dev                                  cstackBANK0   0008A
NetworkInit@devPanID                             cstackBANK0   0008B
NetworkIssueDataRequest@data                     cstackBANK0   000AE
NetworkIssueDataRequest@sz                       cstackBANK0   000CA
NetworkManagerProcessIncomingData@buffer         cstackBANK1   00140
NetworkManagerProcessIncomingData@dHdr           cstackBANK1   00184
NetworkManagerProcessIncomingData@data           cstackBANK0   000E9
NetworkManagerProcessIncomingData@isBroadcast    cstackBANK0   000ED
NetworkManagerProcessIncomingData@isFormed       cstackBANK1   00180
NetworkManagerProcessIncomingData@isSecure       cstackBANK0   000EE
NetworkManagerProcessIncomingData@isSecurePacket cstackBANK1   00183
NetworkManagerProcessIncomingData@packetsize     cstackBANK1   00181
NetworkManagerProcessIncomingData@size           cstackBANK0   000EB
NetworkManagerTask@data                          cstackBANK1   00100
NetworkManagerTask@delay                         bssBANK2      00238
NetworkManagerTask@sz                            cstackBANK1   00125
NetworkManagerTask@tStart                        bssBANK2      0020C
NetworkPrepareSendPacket@address                 cstackBANK0   00070
NetworkPrepareSendPacket@buffer                  cstackBANK0   00078
NetworkPrepareSendPacket@data                    cstackBANK0   0007B
NetworkPrepareSendPacket@nHdr                    cstackBANK0   0007F
NetworkPrepareSendPacket@pType                   cstackBANK0   0007A
NetworkPrepareSendPacket@size                    cstackBANK0   0007D
NetworkSendDiscoverRequest@address               cstackBANK0   000DE
NetworkSendDiscoverRequest@databuff              cstackBANK0   0009B
NetworkSendDiscoverRequest@dhdr                  cstackBANK0   000DD
NetworkSendDiscoverRequest@size                  cstackBANK0   000DB
NetworkSendDiscoverResponse@address              cstackBANK0   000DE
NetworkSendDiscoverResponse@databuff             cstackBANK0   0009B
NetworkSendDiscoverResponse@dhdr                 cstackBANK0   000DD
NetworkSendDiscoverResponse@size                 cstackBANK0   000DB
NetworkSetAddressPAN@PANID                       cstackBANK0   00074
NetworkSetAddressPAN@address                     cstackBANK0   0006C
NetworkSetDeviceType@dev                         cstackBANK0   00060
NetworkUnicastData@address                       cstackBANK0   000E9
NetworkUnicastData@data                          cstackBANK0   000F1
NetworkUnicastData@isSecure                      cstackBANK0   000F5
NetworkUnicastData@mAddress                      cstackBANK0   000F6
NetworkUnicastData@res                           cstackBANK0   000F8
NetworkUnicastData@size                          cstackBANK0   000F3
PHYGetLongRAMAddr@address                        cstackBANK0   00062
PHYGetLongRAMAddr@tmpRFIE                        cstackBANK0   00067
PHYGetLongRAMAddr@toReturn                       cstackBANK0   00066
PHYGetShortRAMAddr@address                       cstackBANK0   00062
PHYGetShortRAMAddr@tmpRFIE                       cstackBANK0   00064
PHYGetShortRAMAddr@toReturn                      cstackBANK0   00063
PHYSetLongRAMAddr@address                        cstackBANK0   00062
PHYSetLongRAMAddr@tmpRFIE                        cstackBANK0   00067
PHYSetLongRAMAddr@value                          cstackBANK0   00064
PHYSetShortRAMAddr@address                       cstackBANK0   00063
PHYSetShortRAMAddr@tmpRFIE                       cstackBANK0   00064
PHYSetShortRAMAddr@value                         cstackBANK0   00062
Read_MAC_Address@addr8                           cstackBANK0   00075
Read_MAC_Address@address                         cstackBANK0   0007B
Read_MAC_Address@i                               cstackBANK0   00085
Read_MAC_Address@j                               cstackBANK0   00084
Read_MAC_Address@pAddress                        cstackBANK0   00083
RouteManagerPerformUpdate@best                   cstackBANK0   000A3
RouteManagerPerformUpdate@currentEtx             cstackBANK0   000A1
RouteManagerPerformUpdate@entry                  cstackBANK0   000A7
RouteManagerPerformUpdate@i                      cstackBANK0   0009D
RouteManagerPerformUpdate@linkEtx                cstackBANK0   0009B
RouteManagerPerformUpdate@minEtx                 cstackBANK0   000A5
RouteManagerPerformUpdate@pathEtx                cstackBANK0   0009F
RouteManagerPerformUpdate@r                      cstackBANK0   000A9
RouteManagerProcessReceive@congested             cstackBANK0   000B6
RouteManagerProcessReceive@data                  cstackBANK0   000B0
RouteManagerProcessReceive@from                  cstackBANK0   000B7
RouteManagerProcessReceive@len                   cstackBANK0   000B2
RouteManagerProcessReceive@rcvBeacon             cstackBANK0   000BF
RouteManagerProcessReceive@source                cstackBANK0   000AE
RouteManagerSetNeighborCongested@congested       cstackBANK0   00068
RouteManagerSetNeighborCongested@n               cstackBANK0   00060
RouteManagerShouldInsert@entry                   cstackBANK0   00089
RouteManagerShouldInsert@found                   cstackBANK0   0008D
RouteManagerShouldInsert@hdr                     cstackBANK0   00081
RouteManagerShouldInsert@i                       cstackBANK0   0008B
RouteManagerShouldInsert@neighEtx                cstackBANK0   00087
RouteManagerShouldInsert@pathEtx                 cstackBANK0   00085
RouteManagerShouldInsert@rcvBeacon               cstackBANK0   0008E
RouterEvicted@address                            cstackBANK0   0008E
RouterEvicted@i                                  cstackBANK0   0009B
RouterEvicted@idx                                cstackBANK0   0009A
RouterEvicted@r                                  cstackBANK0   00098
RoutingTableFindDeviceOrParent@address           cstackBANK0   00080
RoutingTableFindDeviceOrParent@entry             cstackBANK0   00094
RoutingTableFindDeviceOrParent@i                 cstackBANK0   0008A
RoutingTableFindDeviceOrParent@res               cstackBANK0   0008C
SPIPut2@i                                        cstackBANK0   00061
SPIPut2@v                                        cstackBANK0   00060
SPIPut@i                                         cstackBANK0   00061
SPIPut@v                                         cstackBANK0   00060
SendPacket@Broadcast                             cstackBANK0   00097
SendPacket@DestinationAddress                    cstackBANK0   0008F
SendPacket@SecurityEnabled                       cstackBANK0   00094
SendPacket@destinationPANID                      cstackBANK0   00091
SendPacket@isCommand                             cstackBANK0   00093
SendPacket@status                                cstackBANK0   00096
SendPacket@tParam                                cstackBANK0   00098
TMSendDataToRFD@data                             cstackBANK0   000E4
TMSendDataToRFD@databuff                         cstackBANK1   00100
TMSendDataToRFD@device                           cstackBANK0   000DB
TMSendDataToRFD@isSecure                         cstackBANK0   000E8
TMSendDataToRFD@pType                            cstackBANK0   000E3
TMSendDataToRFD@size                             cstackBANK0   000E6
TMSendFormedPacketToRFD@data                     cstackBANK0   000C8
TMSendFormedPacketToRFD@device                   cstackBANK0   000C0
TMSendFormedPacketToRFD@dhdr                     cstackBANK0   000D1
TMSendFormedPacketToRFD@isSecure                 cstackBANK0   000CC
TMSendFormedPacketToRFD@myaddr                   cstackBANK0   000CE
TMSendFormedPacketToRFD@parent                   cstackBANK0   000D3
TMSendFormedPacketToRFD@res                      cstackBANK0   000D0
TMSendFormedPacketToRFD@size                     cstackBANK0   000CA
TMSendFormedPacketTowardsCoordinator@data        cstackBANK0   00083
TMSendFormedPacketTowardsCoordinator@i           cstackBANK0   0008C
TMSendFormedPacketTowardsCoordinator@isFormed    cstackBANK0   00087
TMSendFormedPacketTowardsCoordinator@isSecure    cstackBANK0   00088
TMSendFormedPacketTowardsCoordinator@res         cstackBANK0   0008B
TMSendFormedPacketTowardsCoordinator@size        cstackBANK0   00085
TransportManagerTask@databuff                    cstackBANK0   000B2
TransportManagerTask@i                           cstackBANK0   000F4
TransportManagerTask@sz                          cstackBANK0   000F2
TunnelManagerGetTunnel@addr                      cstackBANK0   000AE
TunnelManagerGetTunnel@device                    cstackBANK0   00098
TunnelManagerGetTunnel@i                         cstackBANK0   000BE
TunnelManagerGetTunnel@retAddr                   cstackBANK0   000B6
TunnelManagerGetTunnel@trec                      cstackBANK0   000A6
TunnelManagerInvalidateTunnel@addr               cstackBANK0   0008A
TunnelManagerInvalidateTunnel@device             cstackBANK0   00080
TunnelManagerInvalidateTunnel@i                  cstackBANK0   00092
TunnelManagerSetTunnel@OldestTick                cstackBANK0   00090
TunnelManagerSetTunnel@device                    cstackBANK0   00080
TunnelManagerSetTunnel@emptyindex                cstackBANK0   0008C
TunnelManagerSetTunnel@i                         cstackBANK0   00098
TunnelManagerSetTunnel@index                     cstackBANK0   0008E
TunnelManagerSetTunnel@oldestindex               cstackBANK0   0008A
TunnelManagerSetTunnel@parent                    cstackBANK0   00082
_ANCON0                                          (abs)         00F48
_ANCON1                                          (abs)         00F49
_ActiveScanChannel                               bssBANK1      001DE
_ActiveScanResults                               bssBANK2      00260
_AddMSToTick                                     text37        06554
_AddNodeToNetworkTable                           text85        03C88
_BMState                                         bssCOMRAM     0003F
_BankIndex                                       dataCOMRAM    00059
_BeaconManagerInit                               text132       07A0C
_BeaconManagerTask                               text73        05B46
_BeaconManagerTrigger                            text69        07C84
_BlinkRedLED                                     text56        07BD6
_BroadcastManagerDelaySend                       text36        04678
_BroadcastManagerInit                            text130       07AAC
_BroadcastManagerTask                            text72        038CE
_ButtonTask                                      text163       06D8C
_CacheInit                                       text129       07A94
_ConnectionTable                                 bssBANK3      00300
_CoordinatorAddr                                 bssBANK2      002A5
_CoordinatorAddress                              text35        07BA0
_CoordinatorGenericAddress                       text104       0780C
_DEVPanID                                        dataBANK2     002E9
_DelayMs                                         text159       063A0
_DelayUS                                         text160       07896
_DeviceManagerBufferDeviceData                   text55        07C26
_DeviceManagerGetDeviceData                      text40        07C1C
_DeviceManagerGetDeviceType                      text54        06662
_DeviceManagerInit                               text128       07A60
_DeviceType                                      dataCOMRAM    0005A
_EECON2                                          (abs)         00FA7
_EEPROMRead                                      text6         077DE
_GIE                                             (abs)         07F97
_GetRouteAddressOfChild                          text32        064C6
_HardwareInit                                    text162       06436
_HighISR                                         intcode       00008
_IEEESeqNum                                      bssCOMRAM     00040
_INTCON2bits                                     (abs)         00FF1
_INTCONbits                                      (abs)         00FF2
_InitMRF24J40                                    text110       03FFE
_InitSymbolTimer                                 text161       07B60
_IsMemberOfNetwork                               text115       07C98
_IsNetworkDevice                                 text39        041A6
_LATAbits                                        (abs)         00F89
_LATCbits                                        (abs)         00F8B
_LATDbits                                        (abs)         00F8C
_LATEbits                                        (abs)         00F8D
_LCDInit                                         text156       05552
_LCDText                                         bssBANK3      003B9
_LCDUpdate                                       text154       05E7A
_LCD_WriteCmd                                    text157       07B4A
_LCD_WriteData                                   text155       07B34
_LEAppendNeighborInfo                            text78        04802
_LEDCmd                                          bssCOMRAM     00036
_LEDCommand                                      text57        0777E
_LEDManagerTask                                  text153       01D24
_LEDState                                        bssBANK1      001D9
_LELinkQualityGet                                text76        069CC
_LE_ClearDLQ                                     text68        06EAC
_LE_GetNeighborDeviceType                        text34        07632
_LE_InsertNeighbor                               text23        05F30
_LE_PinNeighbor                                  text67        073E4
_LE_RemoveNeighborDevice                         text31        06A42
_LE_UnpinNeighbor                                text66        0739E
_LE_processReceivedMessage                       text42        04C6C
_LinkEstimatorInit                               text127       07BFA
_MACCurrentChannel                               bssCOMRAM     00041
_MACInitParams                                   bssBANK2      00257
_MACRxPacket                                     bssBANK2      00279
_MAC_PANID                                       bssCOMRAM     00051
_MRF24J40Status                                  bssCOMRAM     00042
_MSTickGet                                       text137       076E0
_MSTickGetDiffNow                                text82        0676A
_MiApp_DiscardMessage                            text86        07C6C
_MiApp_EstablishConnection                       text122       06084
_MiApp_GetParentAddress                          text120       07A2A
_MiApp_IsMemberOfNetwork                         text114       07C94
_MiApp_IsNetworkBusy                             text71        07CBE
_MiApp_MessageAvailable                          text14        05676
_MiApp_ProtocolInit                              text105       06B92
_MiApp_RequestData                               text88        07C8C
_MiApp_SearchConnection                          text12        0542E
_MiApp_SetAddressPan                             text145       06BFA
_MiApp_SetChannel                                text142       07C06
_MiApp_TransceiverPowerState                     text10        07B8C
_MiApp_UnicastAddress                            text8         074B2
_MiMAC_ChannelAssessment                         text109       0766E
_MiMAC_DiscardPacket                             text84        07A46
_MiMAC_Init                                      text107       066E6
_MiMAC_PowerState                                text11        05308
_MiMAC_ReceivedPacket                            text83        00C3C
_MiMAC_SendPacket                                text92        01182
_MiMAC_SetAltAddress                             text149       07122
_MiMAC_SetChannel                                text143       0742A
_MiWi_TickGet                                    text165       0746E
_MiWi_TickGetMs                                  text164       07716
_MyAddress                                       dataBANK2     002EB
_NetSeq                                          bssCOMRAM     00043
_NetworkAddressSizeGet                           text148       07CB0
_NetworkDataArrivedEvent                         text38        06E4E
_NetworkDiscoveredEvent                          text41        0434A
_NetworkGetDeviceType                            text147       07CAC
_NetworkGetMyRouteInfo                           text99        07BE2
_NetworkGetPANID                                 text103       07C3A
_NetworkGetParentAddress                         text121       07BB4
_NetworkHasRoute                                 text116       074F4
_NetworkHasRoute$4257                            cstackBANK0   00081
_NetworkInit                                     text123       0577C
_NetworkIssueDataRequest                         text89        06306
_NetworkManagerGetMyAddress                      text102       07BEE
_NetworkManagerProcessIncomingData               text25        02F2A
_NetworkManagerTask                              text59        02398
_NetworkPrepareSendPacket                        text100       05A62
_NetworkReleaseUserData                          text87        07C88
_NetworkSendDiscoverRequest                      text13        06B26
_NetworkSendDiscoverResponse                     text24        06AB6
_NetworkSequence                                 text101       07C7A
_NetworkSetAddressPAN                            text146       06FC4
_NetworkSetDeviceType                            text106       07C44
_NetworkUnicastData                              text9         03E50
_NewBestParent                                   bssBANK2      002AD
_OSCCON                                          (abs)         00FD3
_OSCTUNEbits                                     (abs)         00F9B
_OutgoingFrameCounter                            bssBANK2      0023C
_PHYGetLongRAMAddr                               text112       07020
_PHYGetShortRAMAddr                              text111       077AE
_PHYSetLongRAMAddr                               text144       070CC
_PHYSetShortRAMAddr                              text151       07868
_PIR1bits                                        (abs)         00F9E
_PIR3bits                                        (abs)         00FA4
_PORTBbits                                       (abs)         00F81
_PPSCONbits                                      (abs)         00EFF
_RMRoutingTableCount                             text70        07C30
_RPINR1                                          (abs)         00EE7
_RPINR21                                         (abs)         00EFB
_RPOR19                                          (abs)         00ED9
_RPOR21                                          (abs)         00EDB
_RbcQ                                            bssBIGRAM     008D2
_Read_MAC_Address                                text5         06128
_RouteManagerInit                                text126       0783A
_RouteManagerPerformUpdate                       text62        0206E
_RouteManagerProcessReceive                      text20        04984
_RouteManagerRequestUpdate                       text98        07C74
_RouteManagerSetNeighborCongested                text22        07CB8
_RouteManagerShouldInsert                        text53        05972
_RouteManagerTask                                text61        07358
_RouteMgrUpdateRequired                          bssCOMRAM     00044
_RouterEvicted                                   text94        05DC0
_RoutingTableFindDeviceOrParent                  text33        05882
_RxBuffer                                        bssBANK4      00400
_SPIGet                                          text113       07C4E
_SPIGet2                                         text7         07C12
_SPIPut                                          text152       07A7A
_SPIPut2                                         text158       07AC4
_SSP1CON1                                        (abs)         00FC6
_SSP1STAT                                        (abs)         00FC7
_SSP2BUF                                         (abs)         00F75
_SSP2CON1                                        (abs)         00F72
_SSP2CON1bits                                    (abs)         00F72
_SSP2STAT                                        (abs)         00F73
_SSPBUF                                          (abs)         00FC9
_SSPCON1bits                                     (abs)         00FC6
_SendPacket                                      text91        06268
_T0CON                                           (abs)         00FD5
_T0CONbits                                       (abs)         00FD5
_TMQ                                             bssBANK5      00500
_TMR0                                            (abs)         00FD6
_TMR0H                                           (abs)         00FD7
_TMR0L                                           (abs)         00FD6
_TMR1                                            (abs)         00FCE
_TMSendDataToRFD                                 text26        06C62
_TMSendFormedPacketToRFD                         text27        026BC
_TMSendFormedPacketTowardsCoordinator            text30        04F3A
_TMState                                         bssCOMRAM     00045
_TRISAbits                                       (abs)         00F92
_TRISBbits                                       (abs)         00F93
_TRISCbits                                       (abs)         00F94
_TRISDbits                                       (abs)         00F95
_TRISEbits                                       (abs)         00F96
_Tick_MS                                         bssBANK2      002B5
_TimeTickISR                                     text58        0774C
_TimerDisable                                    text141       07CA8
_TimerEnable                                     text139       07CA0
_TimerEnterCritical                              text140       07CA4
_TimerExitCritical                               text138       07C9C
_TransportManagerInit                            text125       07B08
_TransportManagerNoRoute                         text65        07CBC
_TransportManagerRouteFound                      text64        07CBA
_TransportManagerTask                            text60        0158A
_TunnelManagerGetTunnel                          text29        04AFC
_TunnelManagerInit                               text124       07AF2
_TunnelManagerInvalidateTunnel                   text28        061CA
_TunnelManagerSetTunnel                          text19        03426
_TxBuff                                          bssBANK5      00598
_TxBuffer                                        bssBANK3      00355
_TxData                                          bssBANK1      001DF
_TxIndex                                         bssCOMRAM     00046
_UserMessageAvailable                            bssBANK1      001E0
_WDTCONbits                                      (abs)         00FC0
__CFG_CP0$OFF                                    (abs)         00000
__CFG_CPUDIV$OSC1                                (abs)         00000
__CFG_DSBOREN$ON                                 (abs)         00000
__CFG_DSWDTEN$ON                                 (abs)         00000
__CFG_DSWDTOSC$INTOSCREF                         (abs)         00000
__CFG_DSWDTPS$G2                                 (abs)         00000
__CFG_FCMEN$ON                                   (abs)         00000
__CFG_IESO$ON                                    (abs)         00000
__CFG_IOL1WAY$OFF                                (abs)         00000
__CFG_LPT1OSC$OFF                                (abs)         00000
__CFG_MSSP7B_EN$MSK7                             (abs)         00000
__CFG_OSC$INTOSCPLL                              (abs)         00000
__CFG_PLLDIV$2                                   (abs)         00000
__CFG_RTCOSC$INTOSCREF                           (abs)         00000
__CFG_STVREN$ON                                  (abs)         00000
__CFG_T1DIG$ON                                   (abs)         00000
__CFG_WDTEN$OFF                                  (abs)         00000
__CFG_WDTPS$32768                                (abs)         00000
__CFG_WPCFG$OFF                                  (abs)         00000
__CFG_WPDIS$OFF                                  (abs)         00000
__CFG_WPEND$PAGE_WPFP                            (abs)         00000
__CFG_WPFP$PAGE_63                               (abs)         00000
__CFG_XINST$OFF                                  (abs)         00000
__HRAM                                           (abs)         00000
__Habs1                                          abs1          00000
__Hbank0                                         bank0         00000
__Hbank1                                         bank1         00000
__Hbank10                                        bank10        00000
__Hbank11                                        bank11        00000
__Hbank12                                        bank12        00000
__Hbank13                                        bank13        00000
__Hbank14                                        bank14        00000
__Hbank2                                         bank2         00000
__Hbank3                                         bank3         00000
__Hbank4                                         bank4         00000
__Hbank5                                         bank5         00000
__Hbank6                                         bank6         00000
__Hbank7                                         bank7         00000
__Hbank8                                         bank8         00000
__Hbank9                                         bank9         00000
__Hbigbss                                        bigbss        00000
__Hbigdata                                       bigdata       00000
__Hbigram                                        bigram        00000
__Hbss                                           bss           00000
__HbssBANK1                                      bssBANK1      00000
__HbssBANK2                                      bssBANK2      00000
__HbssBANK3                                      bssBANK3      00000
__HbssBANK4                                      bssBANK4      00000
__HbssBANK5                                      bssBANK5      00000
__HbssBANK6                                      bssBANK6      00000
__HbssBANK7                                      bssBANK7      00000
__HbssBANK8                                      bssBANK8      00000
__HbssBIGRAM                                     bssBIGRAM     00000
__HbssCOMRAM                                     bssCOMRAM     00000
__Hcinit                                         cinit         00000
__Hclrtext                                       clrtext       00000
__Hcomram                                        comram        00000
__Hconfig                                        config        10000
__Hconst                                         const         00000
__HcstackBANK0                                   cstackBANK0   00000
__HcstackBANK1                                   cstackBANK1   00000
__HcstackBANK3                                   cstackBANK3   00000
__HcstackCOMRAM                                  cstackCOMRAM  00000
__Hdata                                          data          00000
__HdataBANK2                                     dataBANK2     00000
__HdataCOMRAM                                    dataCOMRAM    00000
__Hend_init                                      end_init      00480
__Hfarbss                                        farbss        00000
__Hfardata                                       fardata       00000
__Hibigdata                                      ibigdata      00000
__Hidata                                         idata         00000
__HidataBANK2                                    idataBANK2    00000
__HidataCOMRAM                                   idataCOMRAM   00000
__Hidloc                                         idloc         00000
__Hifardata                                      ifardata      00000
__Hinit                                          init          0047C
__Hintcode                                       intcode       0047C
__Hintcode_body                                  intcode_body  00000
__Hintcodelo                                     intcodelo     0047C
__Hintentry                                      intentry      00000
__Hintret                                        intret        00000
__Hintsave_regs                                  intsave_regs  00000
__Hirdata                                        irdata        00000
__Hjflash_buffer                                 jflash_buffer 0F800
__Hmediumconst                                   mediumconst   0FFF8
__HnvBANK1                                       nvBANK1       00000
__HnvFARRAM                                      nvFARRAM      00000
__Hnvbit                                         nvbit         00000
__Hnvrram                                        nvrram        00000
__Hparam                                         rparam        00000
__Hpowerup                                       powerup       0047C
__Hram                                           ram           00000
__Hramtop                                        ramtop        00F00
__Hrbit                                          rbit          00000
__Hrbss                                          rbss          00000
__Hrdata                                         rdata         00000
__Hreset_vec                                     reset_vec     00004
__Hrparam                                        rparam        00000
__Hsfr                                           sfr           00000
__Hsmallconst                                    smallconst    00000
__Hspace_0                                       (abs)         10000
__Hspace_1                                       (abs)         00E9E
__Hspace_2                                       (abs)         00000
__Hstack                                         stack         00000
__Hstruct                                        struct        00000
__Htemp                                          temp          0005F
__Htext                                          text          00000
__Htext0                                         text0         00000
__Htext1                                         text1         00000
__Htext10                                        text10        00000
__Htext100                                       text100       00000
__Htext101                                       text101       00000
__Htext102                                       text102       00000
__Htext103                                       text103       00000
__Htext104                                       text104       00000
__Htext105                                       text105       00000
__Htext106                                       text106       00000
__Htext107                                       text107       00000
__Htext108                                       text108       00000
__Htext109                                       text109       00000
__Htext11                                        text11        00000
__Htext110                                       text110       00000
__Htext111                                       text111       00000
__Htext112                                       text112       00000
__Htext113                                       text113       00000
__Htext114                                       text114       00000
__Htext115                                       text115       00000
__Htext116                                       text116       00000
__Htext117                                       text117       00000
__Htext118                                       text118       00000
__Htext119                                       text119       00000
__Htext12                                        text12        00000
__Htext120                                       text120       00000
__Htext121                                       text121       00000
__Htext122                                       text122       00000
__Htext123                                       text123       00000
__Htext124                                       text124       00000
__Htext125                                       text125       00000
__Htext126                                       text126       00000
__Htext127                                       text127       00000
__Htext128                                       text128       00000
__Htext129                                       text129       00000
__Htext13                                        text13        00000
__Htext130                                       text130       00000
__Htext131                                       text131       00000
__Htext132                                       text132       00000
__Htext133                                       text133       00000
__Htext134                                       text134       00000
__Htext135                                       text135       00000
__Htext136                                       text136       00000
__Htext137                                       text137       00000
__Htext138                                       text138       00000
__Htext139                                       text139       00000
__Htext14                                        text14        00000
__Htext140                                       text140       00000
__Htext141                                       text141       00000
__Htext142                                       text142       00000
__Htext143                                       text143       00000
__Htext144                                       text144       00000
__Htext145                                       text145       00000
__Htext146                                       text146       00000
__Htext147                                       text147       00000
__Htext148                                       text148       00000
__Htext149                                       text149       00000
__Htext15                                        text15        00000
__Htext150                                       text150       00000
__Htext151                                       text151       00000
__Htext152                                       text152       00000
__Htext153                                       text153       00000
__Htext154                                       text154       00000
__Htext155                                       text155       00000
__Htext156                                       text156       00000
__Htext157                                       text157       00000
__Htext158                                       text158       00000
__Htext159                                       text159       00000
__Htext16                                        text16        00000
__Htext160                                       text160       00000
__Htext161                                       text161       00000
__Htext162                                       text162       00000
__Htext163                                       text163       00000
__Htext164                                       text164       00000
__Htext165                                       text165       00000
__Htext167                                       text167       00000
__Htext168                                       text168       00000
__Htext169                                       text169       00000
__Htext17                                        text17        00000
__Htext170                                       text170       00000
__Htext171                                       text171       00000
__Htext172                                       text172       00000
__Htext173                                       text173       00000
__Htext174                                       text174       00000
__Htext175                                       text175       00000
__Htext18                                        text18        00000
__Htext19                                        text19        00000
__Htext2                                         text2         00000
__Htext20                                        text20        00000
__Htext21                                        text21        00000
__Htext22                                        text22        00000
__Htext23                                        text23        00000
__Htext24                                        text24        00000
__Htext25                                        text25        00000
__Htext26                                        text26        00000
__Htext27                                        text27        00000
__Htext28                                        text28        00000
__Htext29                                        text29        00000
__Htext3                                         text3         00000
__Htext30                                        text30        00000
__Htext31                                        text31        00000
__Htext32                                        text32        00000
__Htext33                                        text33        00000
__Htext34                                        text34        00000
__Htext35                                        text35        00000
__Htext36                                        text36        00000
__Htext37                                        text37        00000
__Htext38                                        text38        00000
__Htext39                                        text39        00000
__Htext4                                         text4         00000
__Htext40                                        text40        00000
__Htext41                                        text41        00000
__Htext42                                        text42        00000
__Htext43                                        text43        00000
__Htext44                                        text44        00000
__Htext45                                        text45        00000
__Htext46                                        text46        00000
__Htext47                                        text47        00000
__Htext48                                        text48        00000
__Htext49                                        text49        00000
__Htext5                                         text5         00000
__Htext50                                        text50        00000
__Htext51                                        text51        00000
__Htext52                                        text52        00000
__Htext53                                        text53        00000
__Htext54                                        text54        00000
__Htext55                                        text55        00000
__Htext56                                        text56        00000
__Htext57                                        text57        00000
__Htext58                                        text58        00000
__Htext59                                        text59        00000
__Htext6                                         text6         00000
__Htext60                                        text60        00000
__Htext61                                        text61        00000
__Htext62                                        text62        00000
__Htext63                                        text63        00000
__Htext64                                        text64        00000
__Htext65                                        text65        00000
__Htext66                                        text66        00000
__Htext67                                        text67        00000
__Htext68                                        text68        00000
__Htext69                                        text69        00000
__Htext7                                         text7         00000
__Htext70                                        text70        00000
__Htext71                                        text71        00000
__Htext72                                        text72        00000
__Htext73                                        text73        00000
__Htext74                                        text74        00000
__Htext75                                        text75        00000
__Htext76                                        text76        00000
__Htext77                                        text77        00000
__Htext78                                        text78        00000
__Htext79                                        text79        00000
__Htext8                                         text8         00000
__Htext80                                        text80        00000
__Htext81                                        text81        00000
__Htext82                                        text82        00000
__Htext83                                        text83        00000
__Htext84                                        text84        00000
__Htext85                                        text85        00000
__Htext86                                        text86        00000
__Htext87                                        text87        00000
__Htext88                                        text88        00000
__Htext89                                        text89        00000
__Htext9                                         text9         00000
__Htext90                                        text90        00000
__Htext91                                        text91        00000
__Htext92                                        text92        00000
__Htext93                                        text93        00000
__Htext94                                        text94        00000
__Htext95                                        text95        00000
__Htext96                                        text96        00000
__Htext97                                        text97        00000
__Htext98                                        text98        00000
__Htext99                                        text99        00000
__LRAM                                           (abs)         00001
__Labs1                                          abs1          00000
__Lbank0                                         bank0         00000
__Lbank1                                         bank1         00000
__Lbank10                                        bank10        00000
__Lbank11                                        bank11        00000
__Lbank12                                        bank12        00000
__Lbank13                                        bank13        00000
__Lbank14                                        bank14        00000
__Lbank2                                         bank2         00000
__Lbank3                                         bank3         00000
__Lbank4                                         bank4         00000
__Lbank5                                         bank5         00000
__Lbank6                                         bank6         00000
__Lbank7                                         bank7         00000
__Lbank8                                         bank8         00000
__Lbank9                                         bank9         00000
__Lbigbss                                        bigbss        00000
__Lbigdata                                       bigdata       00000
__Lbigram                                        bigram        00000
__Lbss                                           bss           00000
__LbssBANK1                                      bssBANK1      00000
__LbssBANK2                                      bssBANK2      00000
__LbssBANK3                                      bssBANK3      00000
__LbssBANK4                                      bssBANK4      00000
__LbssBANK5                                      bssBANK5      00000
__LbssBANK6                                      bssBANK6      00000
__LbssBANK7                                      bssBANK7      00000
__LbssBANK8                                      bssBANK8      00000
__LbssBIGRAM                                     bssBIGRAM     00000
__LbssCOMRAM                                     bssCOMRAM     00000
__Lcinit                                         cinit         00000
__Lclrtext                                       clrtext       00000
__Lcomram                                        comram        00000
__Lconfig                                        config        0FFF8
__Lconst                                         const         00000
__LcstackBANK0                                   cstackBANK0   00000
__LcstackBANK1                                   cstackBANK1   00000
__LcstackBANK3                                   cstackBANK3   00000
__LcstackCOMRAM                                  cstackCOMRAM  00000
__Ldata                                          data          00000
__LdataBANK2                                     dataBANK2     00000
__LdataCOMRAM                                    dataCOMRAM    00000
__Lend_init                                      end_init      0047C
__Lfarbss                                        farbss        00000
__Lfardata                                       fardata       00000
__Libigdata                                      ibigdata      00000
__Lidata                                         idata         00000
__LidataBANK2                                    idataBANK2    00000
__LidataCOMRAM                                   idataCOMRAM   00000
__Lidloc                                         idloc         00000
__Lifardata                                      ifardata      00000
__Linit                                          init          0047C
__Lintcode                                       intcode       00008
__Lintcode_body                                  intcode_body  00000
__Lintcodelo                                     intcodelo     0047C
__Lintentry                                      intentry      00000
__Lintret                                        intret        00000
__Lintsave_regs                                  intsave_regs  00000
__Lirdata                                        irdata        00000
__Ljflash_buffer                                 jflash_buffer 0F800
__Lmediumconst                                   mediumconst   0FB7E
__LnvBANK1                                       nvBANK1       00000
__LnvFARRAM                                      nvFARRAM      00000
__Lnvbit                                         nvbit         00000
__Lnvrram                                        nvrram        00000
__Lparam                                         rparam        00000
__Lpowerup                                       powerup       0047C
__Lram                                           ram           00000
__Lramtop                                        ramtop        00F00
__Lrbit                                          rbit          00000
__Lrbss                                          rbss          00000
__Lrdata                                         rdata         00000
__Lreset_vec                                     reset_vec     00000
__Lrparam                                        rparam        00000
__Lsfr                                           sfr           00000
__Lsmallconst                                    smallconst    00000
__Lspace_0                                       (abs)         00000
__Lspace_1                                       (abs)         00000
__Lspace_2                                       (abs)         00000
__Lstack                                         stack         00000
__Lstruct                                        struct        00000
__Ltemp                                          temp          0005E
__Ltext                                          text          00000
__Ltext0                                         text0         00000
__Ltext1                                         text1         00000
__Ltext10                                        text10        00000
__Ltext100                                       text100       00000
__Ltext101                                       text101       00000
__Ltext102                                       text102       00000
__Ltext103                                       text103       00000
__Ltext104                                       text104       00000
__Ltext105                                       text105       00000
__Ltext106                                       text106       00000
__Ltext107                                       text107       00000
__Ltext108                                       text108       00000
__Ltext109                                       text109       00000
__Ltext11                                        text11        00000
__Ltext110                                       text110       00000
__Ltext111                                       text111       00000
__Ltext112                                       text112       00000
__Ltext113                                       text113       00000
__Ltext114                                       text114       00000
__Ltext115                                       text115       00000
__Ltext116                                       text116       00000
__Ltext117                                       text117       00000
__Ltext118                                       text118       00000
__Ltext119                                       text119       00000
__Ltext12                                        text12        00000
__Ltext120                                       text120       00000
__Ltext121                                       text121       00000
__Ltext122                                       text122       00000
__Ltext123                                       text123       00000
__Ltext124                                       text124       00000
__Ltext125                                       text125       00000
__Ltext126                                       text126       00000
__Ltext127                                       text127       00000
__Ltext128                                       text128       00000
__Ltext129                                       text129       00000
__Ltext13                                        text13        00000
__Ltext130                                       text130       00000
__Ltext131                                       text131       00000
__Ltext132                                       text132       00000
__Ltext133                                       text133       00000
__Ltext134                                       text134       00000
__Ltext135                                       text135       00000
__Ltext136                                       text136       00000
__Ltext137                                       text137       00000
__Ltext138                                       text138       00000
__Ltext139                                       text139       00000
__Ltext14                                        text14        00000
__Ltext140                                       text140       00000
__Ltext141                                       text141       00000
__Ltext142                                       text142       00000
__Ltext143                                       text143       00000
__Ltext144                                       text144       00000
__Ltext145                                       text145       00000
__Ltext146                                       text146       00000
__Ltext147                                       text147       00000
__Ltext148                                       text148       00000
__Ltext149                                       text149       00000
__Ltext15                                        text15        00000
__Ltext150                                       text150       00000
__Ltext151                                       text151       00000
__Ltext152                                       text152       00000
__Ltext153                                       text153       00000
__Ltext154                                       text154       00000
__Ltext155                                       text155       00000
__Ltext156                                       text156       00000
__Ltext157                                       text157       00000
__Ltext158                                       text158       00000
__Ltext159                                       text159       00000
__Ltext16                                        text16        00000
__Ltext160                                       text160       00000
__Ltext161                                       text161       00000
__Ltext162                                       text162       00000
__Ltext163                                       text163       00000
__Ltext164                                       text164       00000
__Ltext165                                       text165       00000
__Ltext167                                       text167       00000
__Ltext168                                       text168       00000
__Ltext169                                       text169       00000
__Ltext17                                        text17        00000
__Ltext170                                       text170       00000
__Ltext171                                       text171       00000
__Ltext172                                       text172       00000
__Ltext173                                       text173       00000
__Ltext174                                       text174       00000
__Ltext175                                       text175       00000
__Ltext18                                        text18        00000
__Ltext19                                        text19        00000
__Ltext2                                         text2         00000
__Ltext20                                        text20        00000
__Ltext21                                        text21        00000
__Ltext22                                        text22        00000
__Ltext23                                        text23        00000
__Ltext24                                        text24        00000
__Ltext25                                        text25        00000
__Ltext26                                        text26        00000
__Ltext27                                        text27        00000
__Ltext28                                        text28        00000
__Ltext29                                        text29        00000
__Ltext3                                         text3         00000
__Ltext30                                        text30        00000
__Ltext31                                        text31        00000
__Ltext32                                        text32        00000
__Ltext33                                        text33        00000
__Ltext34                                        text34        00000
__Ltext35                                        text35        00000
__Ltext36                                        text36        00000
__Ltext37                                        text37        00000
__Ltext38                                        text38        00000
__Ltext39                                        text39        00000
__Ltext4                                         text4         00000
__Ltext40                                        text40        00000
__Ltext41                                        text41        00000
__Ltext42                                        text42        00000
__Ltext43                                        text43        00000
__Ltext44                                        text44        00000
__Ltext45                                        text45        00000
__Ltext46                                        text46        00000
__Ltext47                                        text47        00000
__Ltext48                                        text48        00000
__Ltext49                                        text49        00000
__Ltext5                                         text5         00000
__Ltext50                                        text50        00000
__Ltext51                                        text51        00000
__Ltext52                                        text52        00000
__Ltext53                                        text53        00000
__Ltext54                                        text54        00000
__Ltext55                                        text55        00000
__Ltext56                                        text56        00000
__Ltext57                                        text57        00000
__Ltext58                                        text58        00000
__Ltext59                                        text59        00000
__Ltext6                                         text6         00000
__Ltext60                                        text60        00000
__Ltext61                                        text61        00000
__Ltext62                                        text62        00000
__Ltext63                                        text63        00000
__Ltext64                                        text64        00000
__Ltext65                                        text65        00000
__Ltext66                                        text66        00000
__Ltext67                                        text67        00000
__Ltext68                                        text68        00000
__Ltext69                                        text69        00000
__Ltext7                                         text7         00000
__Ltext70                                        text70        00000
__Ltext71                                        text71        00000
__Ltext72                                        text72        00000
__Ltext73                                        text73        00000
__Ltext74                                        text74        00000
__Ltext75                                        text75        00000
__Ltext76                                        text76        00000
__Ltext77                                        text77        00000
__Ltext78                                        text78        00000
__Ltext79                                        text79        00000
__Ltext8                                         text8         00000
__Ltext80                                        text80        00000
__Ltext81                                        text81        00000
__Ltext82                                        text82        00000
__Ltext83                                        text83        00000
__Ltext84                                        text84        00000
__Ltext85                                        text85        00000
__Ltext86                                        text86        00000
__Ltext87                                        text87        00000
__Ltext88                                        text88        00000
__Ltext89                                        text89        00000
__Ltext9                                         text9         00000
__Ltext90                                        text90        00000
__Ltext91                                        text91        00000
__Ltext92                                        text92        00000
__Ltext93                                        text93        00000
__Ltext94                                        text94        00000
__Ltext95                                        text95        00000
__Ltext96                                        text96        00000
__Ltext97                                        text97        00000
__Ltext98                                        text98        00000
__Ltext99                                        text99        00000
__S0                                             (abs)         10000
__S1                                             (abs)         00E9E
__S2                                             (abs)         00000
___awdiv                                         text47        06866
___awdiv@counter                                 cstackBANK0   00064
___awdiv@dividend                                cstackBANK0   00060
___awdiv@divisor                                 cstackBANK0   00062
___awdiv@quotient                                cstackBANK0   00066
___awdiv@sign                                    cstackBANK0   00065
___inthi_sp                                      stack         00000
___intlo_sp                                      stack         00000
___lldiv                                         text48        06956
___lldiv@counter                                 cstackBANK0   0006C
___lldiv@dividend                                cstackBANK0   00060
___lldiv@divisor                                 cstackBANK0   00064
___lldiv@quotient                                cstackBANK0   00068
___llmod                                         text136       06D2A
___llmod@counter                                 cstackBANK0   00074
___llmod@dividend                                cstackBANK0   0006C
___llmod@divisor                                 cstackBANK0   00070
___lwdiv                                         text80        0730E
___lwdiv@counter                                 cstackBANK0   00064
___lwdiv@dividend                                cstackBANK0   00060
___lwdiv@divisor                                 cstackBANK0   00062
___lwdiv@quotient                                cstackBANK0   00065
___lwmod                                         text79        075B6
___lwmod@counter                                 cstackBANK0   00070
___lwmod@dividend                                cstackBANK0   0006C
___lwmod@divisor                                 cstackBANK0   0006E
___param_bank                                    (abs)         00010
___rparam_used                                   (abs)         00001
___sp                                            stack         00000
___wmul                                          text3         0793E
___wmul@multiplicand                             cstackBANK0   00062
___wmul@multiplier                               cstackBANK0   00060
___wmul@product                                  cstackBANK0   00064
__accesstop                                      (abs)         00060
__activetblptr                                   (abs)         00002
__end_of_AddMSToTick                             text37        065DE
__end_of_AddNodeToNetworkTable                   text85        03E50
__end_of_BeaconManagerInit                       text132       07A2A
__end_of_BeaconManagerTask                       text73        05C28
__end_of_BeaconManagerTrigger                    text69        07C88
__end_of_BlinkRedLED                             text56        07BE2
__end_of_BroadcastManagerDelaySend               text36        04802
__end_of_BroadcastManagerInit                    text130       07AC4
__end_of_BroadcastManagerTask                    text72        03ABE
__end_of_ButtonTask                              text163       06DEE
__end_of_CacheInit                               text129       07AAC
__end_of_CoordinatorAddress                      text35        07BB4
__end_of_CoordinatorGenericAddress               text104       0783A
__end_of_DelayMs                                 text159       06436
__end_of_DelayUS                                 text160       078C2
__end_of_DeviceManagerBufferDeviceData           text55        07C30
__end_of_DeviceManagerGetDeviceData              text40        07C26
__end_of_DeviceManagerGetDeviceType              text54        066E6
__end_of_DeviceManagerInit                       text128       07A7A
__end_of_EEPROMRead                              text6         0780C
__end_of_GetRouteAddressOfChild                  text32        06554
__end_of_HardwareInit                            text162       064C6
__end_of_HighISR                                 intcode       0047C
__end_of_InitMRF24J40                            text110       041A6
__end_of_InitSymbolTimer                         text161       07B76
__end_of_IsMemberOfNetwork                       text115       07C9C
__end_of_IsNetworkDevice                         text39        0434A
__end_of_LCDInit                                 text156       05676
__end_of_LCDUpdate                               text154       05F30
__end_of_LCD_WriteCmd                            text157       07B60
__end_of_LCD_WriteData                           text155       07B4A
__end_of_LEAppendNeighborInfo                    text78        04984
__end_of_LEDCommand                              text57        077AE
__end_of_LEDManagerTask                          text153       0206E
__end_of_LELinkQualityGet                        text76        06A42
__end_of_LE_ClearDLQ                             text68        06F0A
__end_of_LE_GetNeighborDeviceType                text34        0766E
__end_of_LE_InsertNeighbor                       text23        05FDE
__end_of_LE_PinNeighbor                          text67        0742A
__end_of_LE_RemoveNeighborDevice                 text31        06AB6
__end_of_LE_UnpinNeighbor                        text66        073E4
__end_of_LE_processReceivedMessage               text42        04DDA
__end_of_LinkEstimatorInit                       text127       07C06
__end_of_MSTickGet                               text137       07716
__end_of_MSTickGetDiffNow                        text82        067EA
__end_of_MiApp_DiscardMessage                    text86        07C74
__end_of_MiApp_EstablishConnection               text122       06128
__end_of_MiApp_GetParentAddress                  text120       07A46
__end_of_MiApp_IsMemberOfNetwork                 text114       07C98
__end_of_MiApp_IsNetworkBusy                     text71        07CC0
__end_of_MiApp_MessageAvailable                  text14        0577C
__end_of_MiApp_ProtocolInit                      text105       06BFA
__end_of_MiApp_RequestData                       text88        07C90
__end_of_MiApp_SearchConnection                  text12        05552
__end_of_MiApp_SetAddressPan                     text145       06C62
__end_of_MiApp_SetChannel                        text142       07C12
__end_of_MiApp_TransceiverPowerState             text10        07BA0
__end_of_MiApp_UnicastAddress                    text8         074F4
__end_of_MiMAC_ChannelAssessment                 text109       076AA
__end_of_MiMAC_DiscardPacket                     text84        07A60
__end_of_MiMAC_Init                              text107       0676A
__end_of_MiMAC_PowerState                        text11        0542E
__end_of_MiMAC_ReceivedPacket                    text83        01182
__end_of_MiMAC_SendPacket                        text92        0158A
__end_of_MiMAC_SetAltAddress                     text149       07178
__end_of_MiMAC_SetChannel                        text143       0746E
__end_of_MiWi_TickGet                            text165       074B2
__end_of_MiWi_TickGetMs                          text164       0774C
__end_of_NetworkAddressSizeGet                   text148       07CB4
__end_of_NetworkDataArrivedEvent                 text38        06EAC
__end_of_NetworkDiscoveredEvent                  text41        044EC
__end_of_NetworkGetDeviceType                    text147       07CB0
__end_of_NetworkGetMyRouteInfo                   text99        07BEE
__end_of_NetworkGetPANID                         text103       07C44
__end_of_NetworkGetParentAddress                 text121       07BC8
__end_of_NetworkHasRoute                         text116       07536
__end_of_NetworkInit                             text123       05882
__end_of_NetworkIssueDataRequest                 text89        063A0
__end_of_NetworkManagerGetMyAddress              text102       07BFA
__end_of_NetworkManagerProcessIncomingData       text25        031B8
__end_of_NetworkManagerTask                      text59        026BC
__end_of_NetworkPrepareSendPacket                text100       05B46
__end_of_NetworkReleaseUserData                  text87        07C8C
__end_of_NetworkSendDiscoverRequest              text13        06B92
__end_of_NetworkSendDiscoverResponse             text24        06B26
__end_of_NetworkSequence                         text101       07C80
__end_of_NetworkSetAddressPAN                    text146       07020
__end_of_NetworkSetDeviceType                    text106       07C4E
__end_of_NetworkUnicastData                      text9         03FFE
__end_of_PHYGetLongRAMAddr                       text112       07076
__end_of_PHYGetShortRAMAddr                      text111       077DE
__end_of_PHYSetLongRAMAddr                       text144       07122
__end_of_PHYSetShortRAMAddr                      text151       07896
__end_of_RMRoutingTableCount                     text70        07C3A
__end_of_Read_MAC_Address                        text5         061CA
__end_of_RouteManagerInit                        text126       07868
__end_of_RouteManagerPerformUpdate               text62        02398
__end_of_RouteManagerProcessReceive              text20        04AFC
__end_of_RouteManagerRequestUpdate               text98        07C7A
__end_of_RouteManagerSetNeighborCongested        text22        07CBA
__end_of_RouteManagerShouldInsert                text53        05A62
__end_of_RouteManagerTask                        text61        0739E
__end_of_RouterEvicted                           text94        05E7A
__end_of_RoutingTableFindDeviceOrParent          text33        05972
__end_of_SPIGet                                  text113       07C58
__end_of_SPIGet2                                 text7         07C1C
__end_of_SPIPut                                  text152       07A94
__end_of_SPIPut2                                 text158       07ADC
__end_of_SendPacket                              text91        06306
__end_of_TMSendDataToRFD                         text26        06CC6
__end_of_TMSendFormedPacketToRFD                 text27        029C8
__end_of_TMSendFormedPacketTowardsCoordinator    text30        05084
__end_of_TimeTickISR                             text58        0777E
__end_of_TimerDisable                            text141       07CAC
__end_of_TimerEnable                             text139       07CA4
__end_of_TimerEnterCritical                      text140       07CA8
__end_of_TimerExitCritical                       text138       07CA0
__end_of_TransportManagerInit                    text125       07B1E
__end_of_TransportManagerNoRoute                 text65        07CBE
__end_of_TransportManagerRouteFound              text64        07CBC
__end_of_TransportManagerTask                    text60        01980
__end_of_TunnelManagerGetTunnel                  text29        04C6C
__end_of_TunnelManagerInit                       text124       07B08
__end_of_TunnelManagerInvalidateTunnel           text28        06268
__end_of_TunnelManagerSetTunnel                  text19        03694
__end_of___awdiv                                 text47        068DE
__end_of___lldiv                                 text48        069CC
__end_of___llmod                                 text136       06D8C
__end_of___lwdiv                                 text80        07358
__end_of___lwmod                                 text79        075F4
__end_of___wmul                                  text3         07964
__end_of__initialization                         cinit         05CF0
__end_of_crc32                                   text18        06084
__end_of_crc32_table                             mediumconst   0FF7F
__end_of_hexpowers                               mediumconst   0FF97
__end_of_isBroadcastAddress                      text118       07578
__end_of_isButtonPressed                         text4         0798A
__end_of_isInvalidAddress                        text117       07AF2
__end_of_isKnownPacket                           text17        03426
__end_of_isNetworkSecurityEnabled                text93        07C94
__end_of_isSameAddress                           text96        079AE
__end_of_isdigit                                 text2         07A0C
__end_of_krnd                                    text135       04678
__end_of_krndInit                                text108       05DC0
__end_of_le_computeETX                           text46        075B6
__end_of_le_findEmptyNeighborIdx                 text52        0730E
__end_of_le_findIdx                              text77        06D2A
__end_of_le_findRandomNeighborIdx                text51        03C88
__end_of_le_findWorstNeighborIdx                 text50        05308
__end_of_le_initNeighborIdx                      text49        06662
__end_of_le_updateETX                            text45        06E4E
__end_of_le_updateNeighborEntryIdx               text43        04F3A
__end_of_le_updateNeighborTableEst               text44        02C84
__end_of_main                                    text0         01D24
__end_of_memcmp                                  text119       070CC
__end_of_memcpy                                  text150       07632
__end_of_memset                                  text131       078EC
__end_of_mySecurityKey                           mediumconst   0FF8F
__end_of_mySecurityLevel                         mediumconst   0FFA0
__end_of_netChooseAdvertiseTime                  text134       06956
__end_of_netDecayInterval                        text81        076E0
__end_of_netResetInterval                        text133       07B34
__end_of_networkSendBeacon                       text74        038CE
__end_of_passLinkEtxThreshold                    text63        07BD6
__end_of_radioBroadcast                          text75        06F68
__end_of_radioDiscardPacket                      text16        07C84
__end_of_radioReceivedPacket                     text15        00C3C
__end_of_radioUnicast                            text90        06FC4
__end_of_routeInfoInit                           text97        07222
__end_of_routingTableFind                        text95        06866
__end_of_routingTableUpdateEntry                 text21        051CA
__end_of_sprintf                                 text1         02F2A
__end_ofi2_NetworkAddressSizeGet                 text169       07CB8
__end_ofi2_PHYGetLongRAMAddr                     text173       072C2
__end_ofi2_PHYGetShortRAMAddr                    text172       07916
__end_ofi2_PHYSetLongRAMAddr                     text171       07272
__end_ofi2_PHYSetShortRAMAddr                    text170       0793E
__end_ofi2_SPIGet                                text174       07C62
__end_ofi2_SPIPut                                text175       07B8C
__end_ofi2_isSameAddress                         text167       079D0
__end_ofi2_memcmp                                text168       071CE
__end_ofisBroadcastAddress@F537                  mediumconst   0FF9F
__initialization                                 cinit         05C28
__mediumconst                                    mediumconst   0FB7E
__pbssBANK1                                      bssBANK1      001D9
__pbssBANK2                                      bssBANK2      00200
__pbssBANK3                                      bssBANK3      00300
__pbssBANK4                                      bssBANK4      00400
__pbssBANK5                                      bssBANK5      00500
__pbssBANK6                                      bssBANK6      00600
__pbssBANK7                                      bssBANK7      00700
__pbssBANK8                                      bssBANK8      00800
__pbssBIGRAM                                     bssBIGRAM     008D2
__pbssCOMRAM                                     bssCOMRAM     00036
__pcinit                                         cinit         05C28
__pcstackBANK0                                   cstackBANK0   00060
__pcstackBANK1                                   cstackBANK1   00100
__pcstackBANK3                                   cstackBANK3   003DA
__pcstackCOMRAM                                  cstackCOMRAM  00001
__pdataBANK2                                     dataBANK2     002DD
__pdataCOMRAM                                    dataCOMRAM    00055
__pidataBANK2                                    idataBANK2    079D0
__pidataCOMRAM                                   idataCOMRAM   07C62
__pintcode                                       intcode       00008
__pmediumconst                                   mediumconst   0FB7E
__pnvBANK1                                       nvBANK1       001E5
__ptext0                                         text0         01980
__ptext1                                         text1         02C84
__ptext10                                        text10        07B8C
__ptext100                                       text100       05A62
__ptext101                                       text101       07C7A
__ptext102                                       text102       07BEE
__ptext103                                       text103       07C3A
__ptext104                                       text104       0780C
__ptext105                                       text105       06B92
__ptext106                                       text106       07C44
__ptext107                                       text107       066E6
__ptext108                                       text108       05CFE
__ptext109                                       text109       0766E
__ptext11                                        text11        05308
__ptext110                                       text110       03FFE
__ptext111                                       text111       077AE
__ptext112                                       text112       07020
__ptext113                                       text113       07C4E
__ptext114                                       text114       07C94
__ptext115                                       text115       07C98
__ptext116                                       text116       074F4
__ptext117                                       text117       07ADC
__ptext118                                       text118       07536
__ptext119                                       text119       07076
__ptext12                                        text12        0542E
__ptext120                                       text120       07A2A
__ptext121                                       text121       07BB4
__ptext122                                       text122       06084
__ptext123                                       text123       0577C
__ptext124                                       text124       07AF2
__ptext125                                       text125       07B08
__ptext126                                       text126       0783A
__ptext127                                       text127       07BFA
__ptext128                                       text128       07A60
__ptext129                                       text129       07A94
__ptext13                                        text13        06B26
__ptext130                                       text130       07AAC
__ptext131                                       text131       078C2
__ptext132                                       text132       07A0C
__ptext133                                       text133       07B1E
__ptext134                                       text134       068DE
__ptext135                                       text135       044EC
__ptext136                                       text136       06D2A
__ptext137                                       text137       076E0
__ptext138                                       text138       07C9C
__ptext139                                       text139       07CA0
__ptext14                                        text14        05676
__ptext140                                       text140       07CA4
__ptext141                                       text141       07CA8
__ptext142                                       text142       07C06
__ptext143                                       text143       0742A
__ptext144                                       text144       070CC
__ptext145                                       text145       06BFA
__ptext146                                       text146       06FC4
__ptext147                                       text147       07CAC
__ptext148                                       text148       07CB0
__ptext149                                       text149       07122
__ptext15                                        text15        00480
__ptext150                                       text150       075F4
__ptext151                                       text151       07868
__ptext152                                       text152       07A7A
__ptext153                                       text153       01D24
__ptext154                                       text154       05E7A
__ptext155                                       text155       07B34
__ptext156                                       text156       05552
__ptext157                                       text157       07B4A
__ptext158                                       text158       07AC4
__ptext159                                       text159       063A0
__ptext16                                        text16        07C80
__ptext160                                       text160       07896
__ptext161                                       text161       07B60
__ptext162                                       text162       06436
__ptext163                                       text163       06D8C
__ptext164                                       text164       07716
__ptext165                                       text165       0746E
__ptext167                                       text167       079AE
__ptext168                                       text168       07178
__ptext169                                       text169       07CB4
__ptext17                                        text17        031B8
__ptext170                                       text170       07916
__ptext171                                       text171       07222
__ptext172                                       text172       078EC
__ptext173                                       text173       07272
__ptext174                                       text174       07C58
__ptext175                                       text175       07B76
__ptext18                                        text18        05FDE
__ptext19                                        text19        03426
__ptext2                                         text2         079EE
__ptext20                                        text20        04984
__ptext21                                        text21        05084
__ptext22                                        text22        07CB8
__ptext23                                        text23        05F30
__ptext24                                        text24        06AB6
__ptext25                                        text25        02F2A
__ptext26                                        text26        06C62
__ptext27                                        text27        026BC
__ptext28                                        text28        061CA
__ptext29                                        text29        04AFC
__ptext3                                         text3         0793E
__ptext30                                        text30        04F3A
__ptext31                                        text31        06A42
__ptext32                                        text32        064C6
__ptext33                                        text33        05882
__ptext34                                        text34        07632
__ptext35                                        text35        07BA0
__ptext36                                        text36        04678
__ptext37                                        text37        06554
__ptext38                                        text38        06E4E
__ptext39                                        text39        041A6
__ptext4                                         text4         07964
__ptext40                                        text40        07C1C
__ptext41                                        text41        0434A
__ptext42                                        text42        04C6C
__ptext43                                        text43        04DDA
__ptext44                                        text44        029C8
__ptext45                                        text45        06DEE
__ptext46                                        text46        07578
__ptext47                                        text47        06866
__ptext48                                        text48        06956
__ptext49                                        text49        065DE
__ptext5                                         text5         06128
__ptext50                                        text50        051CA
__ptext51                                        text51        03ABE
__ptext52                                        text52        072C2
__ptext53                                        text53        05972
__ptext54                                        text54        06662
__ptext55                                        text55        07C26
__ptext56                                        text56        07BD6
__ptext57                                        text57        0777E
__ptext58                                        text58        0774C
__ptext59                                        text59        02398
__ptext6                                         text6         077DE
__ptext60                                        text60        0158A
__ptext61                                        text61        07358
__ptext62                                        text62        0206E
__ptext63                                        text63        07BC8
__ptext64                                        text64        07CBA
__ptext65                                        text65        07CBC
__ptext66                                        text66        0739E
__ptext67                                        text67        073E4
__ptext68                                        text68        06EAC
__ptext69                                        text69        07C84
__ptext7                                         text7         07C12
__ptext70                                        text70        07C30
__ptext71                                        text71        07CBE
__ptext72                                        text72        038CE
__ptext73                                        text73        05B46
__ptext74                                        text74        03694
__ptext75                                        text75        06F0A
__ptext76                                        text76        069CC
__ptext77                                        text77        06CC6
__ptext78                                        text78        04802
__ptext79                                        text79        075B6
__ptext8                                         text8         074B2
__ptext80                                        text80        0730E
__ptext81                                        text81        076AA
__ptext82                                        text82        0676A
__ptext83                                        text83        00C3C
__ptext84                                        text84        07A46
__ptext85                                        text85        03C88
__ptext86                                        text86        07C6C
__ptext87                                        text87        07C88
__ptext88                                        text88        07C8C
__ptext89                                        text89        06306
__ptext9                                         text9         03E50
__ptext90                                        text90        06F68
__ptext91                                        text91        06268
__ptext92                                        text92        01182
__ptext93                                        text93        07C90
__ptext94                                        text94        05DC0
__ptext95                                        text95        067EA
__ptext96                                        text96        0798A
__ptext97                                        text97        071CE
__ptext98                                        text98        07C74
__ptext99                                        text99        07BE2
__ramtop                                         ramtop        00F00
__size_of_AddMSToTick                            (abs)         00000
__size_of_AddNodeToNetworkTable                  (abs)         00000
__size_of_BeaconManagerInit                      (abs)         00000
__size_of_BeaconManagerTask                      (abs)         00000
__size_of_BeaconManagerTrigger                   (abs)         00000
__size_of_BlinkRedLED                            (abs)         00000
__size_of_BroadcastManagerDelaySend              (abs)         00000
__size_of_BroadcastManagerInit                   (abs)         00000
__size_of_BroadcastManagerTask                   (abs)         00000
__size_of_ButtonTask                             (abs)         00000
__size_of_CacheInit                              (abs)         00000
__size_of_CoordinatorAddress                     (abs)         00000
__size_of_CoordinatorGenericAddress              (abs)         00000
__size_of_DelayMs                                (abs)         00000
__size_of_DelayUS                                (abs)         00000
__size_of_DeviceManagerBufferDeviceData          (abs)         00000
__size_of_DeviceManagerGetDeviceData             (abs)         00000
__size_of_DeviceManagerGetDeviceType             (abs)         00000
__size_of_DeviceManagerInit                      (abs)         00000
__size_of_EEPROMRead                             (abs)         00000
__size_of_GetRouteAddressOfChild                 (abs)         00000
__size_of_HardwareInit                           (abs)         00000
__size_of_HighISR                                (abs)         00000
__size_of_InitMRF24J40                           (abs)         00000
__size_of_InitSymbolTimer                        (abs)         00000
__size_of_IsMemberOfNetwork                      (abs)         00000
__size_of_IsNetworkDevice                        (abs)         00000
__size_of_LCDInit                                (abs)         00000
__size_of_LCDUpdate                              (abs)         00000
__size_of_LCD_WriteCmd                           (abs)         00000
__size_of_LCD_WriteData                          (abs)         00000
__size_of_LEAppendNeighborInfo                   (abs)         00000
__size_of_LEDCommand                             (abs)         00000
__size_of_LEDManagerTask                         (abs)         00000
__size_of_LELinkQualityGet                       (abs)         00000
__size_of_LE_ClearDLQ                            (abs)         00000
__size_of_LE_GetNeighborDeviceType               (abs)         00000
__size_of_LE_InsertNeighbor                      (abs)         00000
__size_of_LE_PinNeighbor                         (abs)         00000
__size_of_LE_RemoveNeighborDevice                (abs)         00000
__size_of_LE_UnpinNeighbor                       (abs)         00000
__size_of_LE_processReceivedMessage              (abs)         00000
__size_of_LinkEstimatorInit                      (abs)         00000
__size_of_MSTickGet                              (abs)         00000
__size_of_MSTickGetDiffNow                       (abs)         00000
__size_of_MiApp_DiscardMessage                   (abs)         00000
__size_of_MiApp_EstablishConnection              (abs)         00000
__size_of_MiApp_GetParentAddress                 (abs)         00000
__size_of_MiApp_IsMemberOfNetwork                (abs)         00000
__size_of_MiApp_IsNetworkBusy                    (abs)         00000
__size_of_MiApp_MessageAvailable                 (abs)         00000
__size_of_MiApp_ProtocolInit                     (abs)         00000
__size_of_MiApp_RequestData                      (abs)         00000
__size_of_MiApp_SearchConnection                 (abs)         00000
__size_of_MiApp_SetAddressPan                    (abs)         00000
__size_of_MiApp_SetChannel                       (abs)         00000
__size_of_MiApp_TransceiverPowerState            (abs)         00000
__size_of_MiApp_UnicastAddress                   (abs)         00000
__size_of_MiMAC_ChannelAssessment                (abs)         00000
__size_of_MiMAC_DiscardPacket                    (abs)         00000
__size_of_MiMAC_Init                             (abs)         00000
__size_of_MiMAC_PowerState                       (abs)         00000
__size_of_MiMAC_ReceivedPacket                   (abs)         00000
__size_of_MiMAC_SendPacket                       (abs)         00000
__size_of_MiMAC_SetAltAddress                    (abs)         00000
__size_of_MiMAC_SetChannel                       (abs)         00000
__size_of_MiWi_TickGet                           (abs)         00000
__size_of_MiWi_TickGetMs                         (abs)         00000
__size_of_NetworkAddressSizeGet                  (abs)         00000
__size_of_NetworkDataArrivedEvent                (abs)         00000
__size_of_NetworkDiscoveredEvent                 (abs)         00000
__size_of_NetworkGetDeviceType                   (abs)         00000
__size_of_NetworkGetMyRouteInfo                  (abs)         00000
__size_of_NetworkGetPANID                        (abs)         00000
__size_of_NetworkGetParentAddress                (abs)         00000
__size_of_NetworkHasRoute                        (abs)         00000
__size_of_NetworkInit                            (abs)         00000
__size_of_NetworkIssueDataRequest                (abs)         00000
__size_of_NetworkManagerGetMyAddress             (abs)         00000
__size_of_NetworkManagerProcessIncomingData      (abs)         00000
__size_of_NetworkManagerTask                     (abs)         00000
__size_of_NetworkPrepareSendPacket               (abs)         00000
__size_of_NetworkReleaseUserData                 (abs)         00000
__size_of_NetworkSendDiscoverRequest             (abs)         00000
__size_of_NetworkSendDiscoverResponse            (abs)         00000
__size_of_NetworkSequence                        (abs)         00000
__size_of_NetworkSetAddressPAN                   (abs)         00000
__size_of_NetworkSetDeviceType                   (abs)         00000
__size_of_NetworkUnicastData                     (abs)         00000
__size_of_PHYGetLongRAMAddr                      (abs)         00000
__size_of_PHYGetShortRAMAddr                     (abs)         00000
__size_of_PHYSetLongRAMAddr                      (abs)         00000
__size_of_PHYSetShortRAMAddr                     (abs)         00000
__size_of_RMRoutingTableCount                    (abs)         00000
__size_of_Read_MAC_Address                       (abs)         00000
__size_of_RouteManagerInit                       (abs)         00000
__size_of_RouteManagerPerformUpdate              (abs)         00000
__size_of_RouteManagerProcessReceive             (abs)         00000
__size_of_RouteManagerRequestUpdate              (abs)         00000
__size_of_RouteManagerSetNeighborCongested       (abs)         00000
__size_of_RouteManagerShouldInsert               (abs)         00000
__size_of_RouteManagerTask                       (abs)         00000
__size_of_RouterEvicted                          (abs)         00000
__size_of_RoutingTableFindDeviceOrParent         (abs)         00000
__size_of_SPIGet                                 (abs)         00000
__size_of_SPIGet2                                (abs)         00000
__size_of_SPIPut                                 (abs)         00000
__size_of_SPIPut2                                (abs)         00000
__size_of_SendPacket                             (abs)         00000
__size_of_TMSendDataToRFD                        (abs)         00000
__size_of_TMSendFormedPacketToRFD                (abs)         00000
__size_of_TMSendFormedPacketTowardsCoordinator   (abs)         00000
__size_of_TimeTickISR                            (abs)         00000
__size_of_TimerDisable                           (abs)         00000
__size_of_TimerEnable                            (abs)         00000
__size_of_TimerEnterCritical                     (abs)         00000
__size_of_TimerExitCritical                      (abs)         00000
__size_of_TransportManagerInit                   (abs)         00000
__size_of_TransportManagerNoRoute                (abs)         00000
__size_of_TransportManagerRouteFound             (abs)         00000
__size_of_TransportManagerTask                   (abs)         00000
__size_of_TunnelManagerGetTunnel                 (abs)         00000
__size_of_TunnelManagerInit                      (abs)         00000
__size_of_TunnelManagerInvalidateTunnel          (abs)         00000
__size_of_TunnelManagerSetTunnel                 (abs)         00000
__size_of___awdiv                                (abs)         00000
__size_of___lldiv                                (abs)         00000
__size_of___llmod                                (abs)         00000
__size_of___lwdiv                                (abs)         00000
__size_of___lwmod                                (abs)         00000
__size_of___wmul                                 (abs)         00000
__size_of_crc32                                  (abs)         00000
__size_of_isBroadcastAddress                     (abs)         00000
__size_of_isButtonPressed                        (abs)         00000
__size_of_isInvalidAddress                       (abs)         00000
__size_of_isKnownPacket                          (abs)         00000
__size_of_isNetworkSecurityEnabled               (abs)         00000
__size_of_isSameAddress                          (abs)         00000
__size_of_isdigit                                (abs)         00000
__size_of_krnd                                   (abs)         00000
__size_of_krndInit                               (abs)         00000
__size_of_le_computeETX                          (abs)         00000
__size_of_le_findEmptyNeighborIdx                (abs)         00000
__size_of_le_findIdx                             (abs)         00000
__size_of_le_findRandomNeighborIdx               (abs)         00000
__size_of_le_findWorstNeighborIdx                (abs)         00000
__size_of_le_initNeighborIdx                     (abs)         00000
__size_of_le_updateETX                           (abs)         00000
__size_of_le_updateNeighborEntryIdx              (abs)         00000
__size_of_le_updateNeighborTableEst              (abs)         00000
__size_of_main                                   (abs)         00000
__size_of_memcmp                                 (abs)         00000
__size_of_memcpy                                 (abs)         00000
__size_of_memset                                 (abs)         00000
__size_of_netChooseAdvertiseTime                 (abs)         00000
__size_of_netDecayInterval                       (abs)         00000
__size_of_netResetInterval                       (abs)         00000
__size_of_networkSendBeacon                      (abs)         00000
__size_of_passLinkEtxThreshold                   (abs)         00000
__size_of_radioBroadcast                         (abs)         00000
__size_of_radioDiscardPacket                     (abs)         00000
__size_of_radioReceivedPacket                    (abs)         00000
__size_of_radioUnicast                           (abs)         00000
__size_of_routeInfoInit                          (abs)         00000
__size_of_routingTableFind                       (abs)         00000
__size_of_routingTableUpdateEntry                (abs)         00000
__size_of_sprintf                                (abs)         00000
__size_ofi2_NetworkAddressSizeGet                (abs)         00000
__size_ofi2_PHYGetLongRAMAddr                    (abs)         00000
__size_ofi2_PHYGetShortRAMAddr                   (abs)         00000
__size_ofi2_PHYSetLongRAMAddr                    (abs)         00000
__size_ofi2_PHYSetShortRAMAddr                   (abs)         00000
__size_ofi2_SPIGet                               (abs)         00000
__size_ofi2_SPIPut                               (abs)         00000
__size_ofi2_isSameAddress                        (abs)         00000
__size_ofi2_memcmp                               (abs)         00000
__smallconst                                     smallconst    00000
_addressLen                                      dataCOMRAM    0005B
_beaconMessageBuffer                             bssBANK7      00700
_c                                               bssBANK2      00240
_crc32                                           text18        05FDE
_crc32_table                                     mediumconst   0FB7F
_currentInterval                                 bssBANK2      00244
_currentTime                                     bssBANK2      00248
_devState                                        bssBANK1      001E1
_failureCounter                                  bssBANK1      001DC
_hc_table                                        bssBIGRAM     00A8E
_hexpowers                                       mediumconst   0FF8F
_intervalDelay                                   bssBANK2      0024C
_isBroadcastAddress                              text118       07536
_isButtonPressed                                 text4         07964
_isInvalidAddress                                text117       07ADC
_isKnownPacket                                   text17        031B8
_isNetworkSecurityEnabled                        text93        07C90
_isNetworkTrafficSecure                          bssCOMRAM     00047
_isSameAddress                                   text96        0798A
_isdigit                                         text2         079EE
_isdigit$4787                                    cstackBANK0   00061
_justEvictedParent                               bssCOMRAM     00048
_krnd                                            text135       044EC
_krndInit                                        text108       05CFE
_lcdInitialized                                  bssCOMRAM     00049
_le_computeETX                                   text46        07578
_le_findEmptyNeighborIdx                         text52        072C2
_le_findIdx                                      text77        06CC6
_le_findRandomNeighborIdx                        text51        03ABE
_le_findWorstNeighborIdx                         text50        051CA
_le_initNeighborIdx                              text49        065DE
_le_updateETX                                    text45        06DEE
_le_updateNeighborEntryIdx                       text43        04DDA
_le_updateNeighborTableEst                       text44        029C8
_linkEstSeq                                      bssBANK2      0025A
_list                                            bssBIGRAM     00BF6
_main                                            text0         01980
_memcmp                                          text119       07076
_memcpy                                          text150       075F4
_memset                                          text131       078C2
_myAddr                                          bssBANK2      002BD
_myDeviceType                                    nvBANK1       001E5
_myLongAddress                                   dataBANK2     002F3
_myNetworkAddress                                bssCOMRAM     00053
_myPANID                                         dataCOMRAM    0005C
_mySecurityKey                                   mediumconst   0FF7F
_mySecurityLevel                                 mediumconst   0FF9F
_nState                                          bssBANK1      001E2
_neighbor_tbl                                    bssBIGRAM     00D4A
_netChooseAdvertiseTime                          text134       068DE
_netDecayInterval                                text81        076AA
_netResetInterval                                text133       07B1E
_netSequenceNumber                               bssCOMRAM     0004A
_networkSendBeacon                               text74        03694
_nst                                             bssBANK1      001E3
_passLinkEtxThreshold                            text63        07BC8
_pcnt1                                           bssBANK2      0025C
_prevSentIdx                                     bssBANK2      0025E
_radioBroadcast                                  text75        06F0A
_radioDiscardPacket                              text16        07C80
_radioReceivedPacket                             text15        00480
_radioReceivedPacket$5323                        cstackBANK1   00199
_radioUnicast                                    text90        06F68
_routeInfo                                       bssBANK2      00286
_routeInfoInit                                   text97        071CE
_routingTable                                    bssBANK8      00800
_routingTableActive                              bssCOMRAM     00039
_routingTableFind                                text95        067EA
_routingTableUpdateEntry                         text21        05084
_rxMessage                                       bssBANK2      00293
_sprintf                                         text1         02C84
_srcAddress                                      bssBANK2      002C5
_switches                                        bssCOMRAM     0004B
_t1extension                                     bssBANK2      00250
_t1fired                                         bssCOMRAM     0004C
_tInterval                                       bssBANK2      00214
_tRouteMgr                                       bssBANK2      0021C
_tmpFrameCounter                                 bssCOMRAM     0004D
_tmpSourceLongAddress                            bssBANK2      00224
_tunnels                                         bssBANK6      00600
_userDataAvailable                               bssBANK1      001E4
_userdata                                        bssBANK3      00395
_w                                               dataBANK2     002DD
_x                                               dataBANK2     002E1
_y                                               dataCOMRAM    00055
_z                                               dataBANK2     002E5
btemp                                            temp          0005E
crc32@buf                                        cstackBANK0   00064
crc32@crc                                        cstackBANK0   00060
crc32@p                                          cstackBANK0   00072
crc32@size                                       cstackBANK0   00066
end_of_initialization                            cinit         05CF0
i2PHYGetLongRAMAddr@address                      cstackCOMRAM  00003
i2PHYGetLongRAMAddr@tmpRFIE                      cstackCOMRAM  00008
i2PHYGetLongRAMAddr@toReturn                     cstackCOMRAM  00007
i2PHYGetShortRAMAddr@address                     cstackCOMRAM  00003
i2PHYGetShortRAMAddr@tmpRFIE                     cstackCOMRAM  00005
i2PHYGetShortRAMAddr@toReturn                    cstackCOMRAM  00004
i2PHYSetLongRAMAddr@address                      cstackCOMRAM  00003
i2PHYSetLongRAMAddr@tmpRFIE                      cstackCOMRAM  00008
i2PHYSetLongRAMAddr@value                        cstackCOMRAM  00005
i2PHYSetShortRAMAddr@address                     cstackCOMRAM  00004
i2PHYSetShortRAMAddr@tmpRFIE                     cstackCOMRAM  00005
i2PHYSetShortRAMAddr@value                       cstackCOMRAM  00003
i2SPIPut@v                                       cstackCOMRAM  00002
i2_NetworkAddressSizeGet                         text169       07CB4
i2_PHYGetLongRAMAddr                             text173       07272
i2_PHYGetShortRAMAddr                            text172       078EC
i2_PHYSetLongRAMAddr                             text171       07222
i2_PHYSetShortRAMAddr                            text170       07916
i2_SPIGet                                        text174       07C58
i2_SPIPut                                        text175       07B76
i2_isSameAddress                                 text167       079AE
i2_memcmp                                        text168       07178
i2isSameAddress@a1                               cstackCOMRAM  00009
i2isSameAddress@a2                               cstackCOMRAM  00011
i2memcmp@n                                       cstackCOMRAM  00005
i2memcmp@s1                                      cstackCOMRAM  00001
i2memcmp@s2                                      cstackCOMRAM  00003
int$flags                                        temp          0005E
intlevel0                                        text          00000
intlevel1                                        text          00000
intlevel2                                        text          00000
intlevel3                                        text          00000
isBroadcastAddress@F537                          mediumconst   0FF97
isBroadcastAddress@addr                          cstackBANK0   00070
isBroadcastAddress@address                       cstackBANK0   00068
isBroadcastAddress@res                           cstackBANK0   00078
isButtonPressed@index                            cstackBANK0   00062
isButtonPressed@mask                             cstackBANK0   00063
isInvalidAddress@address                         cstackBANK0   00079
isKnownPacket@OldestTick                         cstackBANK0   000B5
isKnownPacket@emptyindex                         cstackBANK0   000B3
isKnownPacket@hash                               cstackBANK0   00098
isKnownPacket@i                                  cstackBANK0   000BD
isKnownPacket@index                              cstackBANK0   000B1
isKnownPacket@oldestindex                        cstackBANK0   000AF
isKnownPacket@unknown                            cstackBANK0   000AE
isKnownPacket@zeros                              cstackBANK0   000A2
isSameAddress@a1                                 cstackBANK0   00070
isSameAddress@a2                                 cstackBANK0   00078
isdigit@c                                        cstackBANK0   00062
krnd@t                                           cstackBANK0   00068
krndInit@value                                   cstackBANK0   00060
le_computeETX@q                                  cstackBANK0   0006B
le_computeETX@q1                                 cstackBANK0   0006A
le_findEmptyNeighborIdx@i                        cstackBANK0   00066
le_findEmptyNeighborIdx@res                      cstackBANK0   00064
le_findIdx@i                                     cstackBANK0   00089
le_findIdx@ll_addr                               cstackBANK0   00080
le_findIdx@res                                   cstackBANK0   00088
le_findRandomNeighborIdx@cnt                     cstackBANK0   00084
le_findRandomNeighborIdx@i                       cstackBANK0   00088
le_findRandomNeighborIdx@num_eligible_eviction   cstackBANK0   00087
le_findRandomNeighborIdx@res                     cstackBANK0   00085
le_findWorstNeighborIdx@i                        cstackBANK0   0008D
le_findWorstNeighborIdx@res                      cstackBANK0   00087
le_findWorstNeighborIdx@thisETX                  cstackBANK0   00089
le_findWorstNeighborIdx@thresholdETX             cstackBANK0   00084
le_findWorstNeighborIdx@worstETX                 cstackBANK0   0008B
le_findWorstNeighborIdx@worstNeighborIdx         cstackBANK0   00085
le_initNeighborIdx@i                             cstackBANK0   00068
le_initNeighborIdx@ll_addr                       cstackBANK0   00060
le_initNeighborIdx@ne                            cstackBANK0   00069
le_updateETX@ne                                  cstackBANK0   0006D
le_updateETX@newEst                              cstackBANK0   0006F
le_updateNeighborEntryIdx@dev                    cstackBANK0   00098
le_updateNeighborEntryIdx@idx                    cstackBANK0   0009C
le_updateNeighborEntryIdx@packetGap              cstackBANK0   0009B
le_updateNeighborEntryIdx@seq                    cstackBANK0   00097
le_updateNeighborTableEst@i                      cstackBANK0   00094
le_updateNeighborTableEst@n                      cstackBANK0   00080
le_updateNeighborTableEst@ne                     cstackBANK0   00095
le_updateNeighborTableEst@newEst                 cstackBANK0   00092
le_updateNeighborTableEst@totalPkt               cstackBANK0   00091
main@F8442                                       bssBANK2      0022C
main@RequestData                                 cstackBANK3   003E9
main@SendPacket                                  cstackBANK3   003E8
main@coord                                       cstackBANK3   003EB
main@counter                                     cstackBANK3   003EA
main@pButtonPressed_0                            cstackBANK3   003DA
main@pButtonPressed_1                            cstackBANK3   003DB
main@pMemberOfNetwork                            cstackBANK3   003F3
main@src                                         cstackBANK3   003F4
main@src1                                        cstackBANK3   003DC
main@tStart                                      cstackBANK3   003E4
memcmp@n                                         cstackBANK0   00064
memcmp@s1                                        cstackBANK0   00060
memcmp@s2                                        cstackBANK0   00062
memcpy@d                                         cstackBANK0   00068
memcpy@d1                                        cstackBANK0   00062
memcpy@n                                         cstackBANK0   00066
memcpy@s                                         cstackBANK0   0006A
memcpy@s1                                        cstackBANK0   00064
memset@c                                         cstackBANK0   00062
memset@n                                         cstackBANK0   00064
memset@p                                         cstackBANK0   00066
memset@p1                                        cstackBANK0   00060
netChooseAdvertiseTime@t                         cstackBANK0   0007C
networkSendBeacon@adr                            cstackBANK0   000AE
networkSendBeacon@bt                             cstackBANK0   000B0
networkSendBeacon@hdr                            cstackBANK0   000B4
networkSendBeacon@last                           cstackBANK0   000AC
networkSendBeacon@r                              cstackBANK0   000B2
passLinkEtxThreshold@etx                         cstackBANK0   00060
radioBroadcast@PANID                             cstackBANK0   000A2
radioBroadcast@addr                              bssBANK2      002CD
radioBroadcast@data                              cstackBANK0   0009F
radioBroadcast@datasize                          cstackBANK0   000A1
radioBroadcast@i                                 cstackBANK0   000A5
radioBroadcast@isSecure                          cstackBANK0   000A4
radioReceivedPacket@PANID                        cstackBANK1   0018E
radioReceivedPacket@bt                           cstackBANK1   0019E
radioReceivedPacket@child                        cstackBANK1   001A2
radioReceivedPacket@crc                          cstackBANK1   0019A
radioReceivedPacket@data                         cstackBANK1   00190
radioReceivedPacket@dhdr                         cstackBANK1   001B2
radioReceivedPacket@isBroadcast                  cstackBANK1   00195
radioReceivedPacket@isSecure                     cstackBANK1   00196
radioReceivedPacket@myAddr                       cstackBANK1   00197
radioReceivedPacket@parent                       cstackBANK1   001AA
radioReceivedPacket@rhdr                         cstackBANK1   001A0
radioReceivedPacket@rssi                         cstackBANK1   00194
radioReceivedPacket@size                         cstackBANK1   00192
radioReceivedPacket@source                       cstackBANK1   00186
radioUnicast@PANID                               cstackBANK0   000A7
radioUnicast@addr                                bssBANK2      002D5
radioUnicast@data                                cstackBANK0   000A9
radioUnicast@datasize                            cstackBANK0   000AB
radioUnicast@dest                                cstackBANK0   0009F
radioUnicast@i                                   cstackBANK0   000AD
radioUnicast@isSecure                            cstackBANK0   000AC
routeInfoInit@ri                                 cstackBANK0   00068
routingTableFind@i                               cstackBANK0   0008D
routingTableFind@neighbor                        cstackBANK0   00081
routingTableFind@res                             cstackBANK0   0008B
routingTableUpdateEntry@etx                      cstackBANK0   000A9
routingTableUpdateEntry@from                     cstackBANK0   00099
routingTableUpdateEntry@idx                      cstackBANK0   000AD
routingTableUpdateEntry@linkEtx                  cstackBANK0   000AB
routingTableUpdateEntry@parent                   cstackBANK0   000A1
sprintf@ap                                       cstackBANK0   00078
sprintf@c                                        cstackBANK0   0007F
sprintf@cp                                       cstackBANK0   00079
sprintf@f                                        cstackBANK0   00069
sprintf@flag                                     cstackBANK0   00074
sprintf@idx                                      cstackBANK0   00073
sprintf@len                                      cstackBANK0   0007B
sprintf@prec                                     cstackBANK0   00077
sprintf@sp                                       cstackBANK0   00067
sprintf@val                                      cstackBANK0   00075
sprintf@width                                    cstackBANK0   0007D
stackhi                                          (abs)         007FF
stacklo                                          (abs)         00754
start                                            init          0047C
start_initialization                             cinit         05C28


FUNCTION INFORMATION:

 *************** function _main *****************
 Defined at:
		line 41 in file "../src/mainRFD-Sleeping.c"
 Parameters:    Size  Location     Type
		None
 Auto vars:     Size  Location     Type
  coord           8   17[BANK3 ] struct addr_t_def
  src             8   26[BANK3 ] struct addr_t_def
  src1            8    2[BANK3 ] struct addr_t_def
  tStart          4   10[BANK3 ] struct MIWI_TICK_t
  pMemberOfNet    1   25[BANK3 ] unsigned char 
  counter         1   16[BANK3 ] unsigned char 
  RequestData     1   15[BANK3 ] unsigned char 
  SendPacket      1   14[BANK3 ] unsigned char 
  pButtonPress    1    1[BANK3 ] unsigned char 
  pButtonPress    1    0[BANK3 ] unsigned char 
 Return value:  Size  Location     Type
                  2  390[None  ] int 
 Registers used:
		wreg, fsr0l, fsr0h, fsr1l, fsr1h, fsr2l, fsr2h, status,2, status,0, tblptrl, tblptrh, tblptru, prodl, prodh, cstack
 Tracked objects:
		On entry : 
		On exit  : 
		Unchanged: 
 Data sizes:     COMRAM   BANK0   BANK1   BANK2   BANK3   BANK4   BANK5   BANK6   BANK7   BANK8   BANK9  BANK10  BANK11  BANK12  BANK13  BANK14
      Params:         0       0       0       0       0       0       0       0       0       0       0       0       0       0       0       0
      Locals:         0       0       0       0      34       0       0       0       0       0       0       0       0       0       0       0
      Temps:          0       0       4       0       0       0       0       0       0       0       0       0       0       0       0       0
      Totals:         0       0       4       0      34       0       0       0       0       0       0       0       0       0       0       0
Total ram usage:       38 bytes
 Hardware stack levels required when called:   17
 This function calls:
		_ButtonTask
		_HardwareInit
		_InitSymbolTimer
		_LCDUpdate
		_LEDCommand
		_LEDManagerTask
		_MiApp_DiscardMessage
		_MiApp_EstablishConnection
		_MiApp_GetParentAddress
		_MiApp_IsMemberOfNetwork
		_MiApp_MessageAvailable
		_MiApp_ProtocolInit
		_MiApp_RequestData
		_MiApp_SearchConnection
		_MiApp_SetAddressPan
		_MiApp_TransceiverPowerState
		_MiApp_UnicastAddress
		_MiWi_TickGetMs
		_Read_MAC_Address
		_isButtonPressed
		_memcmp
		_memset
		_sprintf
 This function is called by:
		Startup code after reset
 This function uses a non-reentrant model


 *************** function _sprintf *****************
 Defined at:
		line 492 in file "C:\Program Files (x86)\Microchip\xc8\v1.38\sources\common\doprnt.c"
 Parameters:    Size  Location     Type
  sp              2    7[BANK0 ] PTR unsigned char 
		 -> LCDText(33), 
  f               2    9[BANK0 ] PTR const unsigned char 
		 -> STR_5(5), STR_4(7), STR_3(18), STR_2(18), 
		 -> STR_1(14), 
 Auto vars:     Size  Location     Type
  idx             1   19[BANK0 ] unsigned char 
  tmpval          4    0        struct .
  width           2   29[BANK0 ] int 
  len             2   27[BANK0 ] unsigned int 
  cp              2   25[BANK0 ] PTR const unsigned char 
		 -> STR_7(7), STR_6(5), 
  val             2   21[BANK0 ] unsigned int 
  c               1   31[BANK0 ] char 
  ap              1   24[BANK0 ] PTR void [1]
		 -> ?_sprintf(2), 
  prec            1   23[BANK0 ] char 
  flag            1   20[BANK0 ] unsigned char 
 Return value:  Size  Location     Type
                  2    7[BANK0 ] int 
 Registers used:
		wreg, fsr2l, fsr2h, status,2, status,0, tblptrl, tblptrh, tblptru, prodl, prodh, cstack
 Tracked objects:
		On entry : 
		On exit  : 
		Unchanged: 
 Data sizes:     COMRAM   BANK0   BANK1   BANK2   BANK3   BANK4   BANK5   BANK6   BANK7   BANK8   BANK9  BANK10  BANK11  BANK12  BANK13  BANK14
      Params:         0       8       0       0       0       0       0       0       0       0       0       0       0       0       0       0
      Locals:         0      13       0       0       0       0       0       0       0       0       0       0       0       0       0       0
      Temps:          0       4       0       0       0       0       0       0       0       0       0       0       0       0       0       0
      Totals:         0      25       0       0       0       0       0       0       0       0       0       0       0       0       0       0
Total ram usage:       25 bytes
 Hardware stack levels used:    1
 Hardware stack levels required when called:    5
 This function calls:
		___lwdiv
		___wmul
		_isdigit
 This function is called by:
		_main
 This function uses a non-reentrant model


 *************** function _isdigit *****************
 Defined at:
		line 8 in file "C:\Program Files (x86)\Microchip\xc8\v1.38\sources\common\isdigit.c"
 Parameters:    Size  Location     Type
  c               1    wreg     unsigned char 
 Auto vars:     Size  Location     Type
  c               1    2[BANK0 ] unsigned char 
 Return value:  Size  Location     Type
		None               void
 Registers used:
		wreg, status,2, status,0
 Tracked objects:
		On entry : 
		On exit  : 
		Unchanged: 
 Data sizes:     COMRAM   BANK0   BANK1   BANK2   BANK3   BANK4   BANK5   BANK6   BANK7   BANK8   BANK9  BANK10  BANK11  BANK12  BANK13  BANK14
      Params:         0       0       0       0       0       0       0       0       0       0       0       0       0       0       0       0
      Locals:         0       2       0       0       0       0       0       0       0       0       0       0       0       0       0       0
      Temps:          0       1       0       0       0       0       0       0       0       0       0       0       0       0       0       0
      Totals:         0       3       0       0       0       0       0       0       0       0       0       0       0       0       0       0
Total ram usage:        3 bytes
 Hardware stack levels used:    1
 Hardware stack levels required when called:    4
 This function calls:
		Nothing
 This function is called by:
		_sprintf
 This function uses a non-reentrant model


 *************** function ___wmul *****************
 Defined at:
		line 15 in file "C:\Program Files (x86)\Microchip\xc8\v1.38\sources\common\Umul16.c"
 Parameters:    Size  Location     Type
  multiplier      2    0[BANK0 ] unsigned int 
  multiplicand    2    2[BANK0 ] unsigned int 
 Auto vars:     Size  Location     Type
  product         2    4[BANK0 ] unsigned int 
 Return value:  Size  Location     Type
                  2    0[BANK0 ] unsigned int 
 Registers used:
		wreg, status,2, status,0, prodl, prodh
 Tracked objects:
		On entry : 
		On exit  : 
		Unchanged: 
 Data sizes:     COMRAM   BANK0   BANK1   BANK2   BANK3   BANK4   BANK5   BANK6   BANK7   BANK8   BANK9  BANK10  BANK11  BANK12  BANK13  BANK14
      Params:         0       4       0       0       0       0       0       0       0       0       0       0       0       0       0       0
      Locals:         0       2       0       0       0       0       0       0       0       0       0       0       0       0       0       0
      Temps:          0       0       0       0       0       0       0       0       0       0       0       0       0       0       0       0
      Totals:         0       6       0       0       0       0       0       0       0       0       0       0       0       0       0       0
Total ram usage:        6 bytes
 Hardware stack levels used:    1
 Hardware stack levels required when called:    4
 This function calls:
		Nothing
 This function is called by:
		_sprintf
 This function uses a non-reentrant model


 *************** function _isButtonPressed *****************
 Defined at:
		line 475 in file "../src/system_config/miwikit_pic18f46j50_24j40/system.c"
 Parameters:    Size  Location     Type
  index           1    wreg     unsigned char 
 Auto vars:     Size  Location     Type
  index           1    2[BANK0 ] unsigned char 
  mask            1    3[BANK0 ] unsigned char 
 Return value:  Size  Location     Type
                  1    wreg      unsigned char 
 Registers used:
		wreg, status,2, status,0
 Tracked objects:
		On entry : 
		On exit  : 
		Unchanged: 
 Data sizes:     COMRAM   BANK0   BANK1   BANK2   BANK3   BANK4   BANK5   BANK6   BANK7   BANK8   BANK9  BANK10  BANK11  BANK12  BANK13  BANK14
      Params:         0       0       0       0       0       0       0       0       0       0       0       0       0       0       0       0
      Locals:         0       2       0       0       0       0       0       0       0       0       0       0       0       0       0       0
      Temps:          0       2       0       0       0       0       0       0       0       0       0       0       0       0       0       0
      Totals:         0       4       0       0       0       0       0       0       0       0       0       0       0       0       0       0
Total ram usage:        4 bytes
 Hardware stack levels used:    1
 Hardware stack levels required when called:    4
 This function calls:
		Nothing
 This function is called by:
		_main
 This function uses a non-reentrant model


 *************** function _Read_MAC_Address *****************
 Defined at:
		line 229 in file "../src/mainRFD-Sleeping.c"
 Parameters:    Size  Location     Type
		None
 Auto vars:     Size  Location     Type
  address         8   27[BANK0 ] struct addr_t_def
  addr8           6   21[BANK0 ] unsigned char [6]
  i               1   37[BANK0 ] unsigned char 
  j               1   36[BANK0 ] unsigned char 
  pAddress        1   35[BANK0 ] PTR unsigned char 
		 -> Read_MAC_Address@address(8), 
 Return value:  Size  Location     Type
                  8   12[BANK0 ] struct addr_t_def
 Registers used:
		wreg, fsr0l, fsr0h, fsr1l, fsr1h, fsr2l, fsr2h, status,2, status,0, cstack
 Tracked objects:
		On entry : 
		On exit  : 
		Unchanged: 
 Data sizes:     COMRAM   BANK0   BANK1   BANK2   BANK3   BANK4   BANK5   BANK6   BANK7   BANK8   BANK9  BANK10  BANK11  BANK12  BANK13  BANK14
      Params:         0       8       0       0       0       0       0       0       0       0       0       0       0       0       0       0
      Locals:         0      17       0       0       0       0       0       0       0       0       0       0       0       0       0       0
      Temps:          0       1       0       0       0       0       0       0       0       0       0       0       0       0       0       0
      Totals:         0      26       0       0       0       0       0       0       0       0       0       0       0       0       0       0
Total ram usage:       26 bytes
 Hardware stack levels used:    1
 Hardware stack levels required when called:    7
 This function calls:
		_EEPROMRead
		_memcpy
 This function is called by:
		_main
 This function uses a non-reentrant model


 *************** function _EEPROMRead *****************
 Defined at:
		line 216 in file "../src/mainRFD-Sleeping.c"
 Parameters:    Size  Location     Type
  dest            1    2[BANK0 ] PTR unsigned char 
		 -> Read_MAC_Address@addr8(6), 
  addr            1    3[BANK0 ] unsigned char 
  count           1    4[BANK0 ] unsigned char 
 Auto vars:     Size  Location     Type
		None
 Return value:  Size  Location     Type
                  1    wreg      void 
 Registers used:
		wreg, fsr2l, fsr2h, status,2, status,0, cstack
 Tracked objects:
		On entry : 
		On exit  : 
		Unchanged: 
 Data sizes:     COMRAM   BANK0   BANK1   BANK2   BANK3   BANK4   BANK5   BANK6   BANK7   BANK8   BANK9  BANK10  BANK11  BANK12  BANK13  BANK14
      Params:         0       3       0       0       0       0       0       0       0       0       0       0       0       0       0       0
      Locals:         0       0       0       0       0       0       0       0       0       0       0       0       0       0       0       0
      Temps:          0       0       0       0       0       0       0       0       0       0       0       0       0       0       0       0
      Totals:         0       3       0       0       0       0       0       0       0       0       0       0       0       0       0       0
Total ram usage:        3 bytes
 Hardware stack levels used:    1
 Hardware stack levels required when called:    6
 This function calls:
		_SPIGet2
		_SPIPut2
 This function is called by:
		_Read_MAC_Address
 This function uses a non-reentrant model


 *************** function _SPIGet2 *****************
 Defined at:
		line 383 in file "../src/system_config/miwikit_pic18f46j50_24j40/spi.c"
 Parameters:    Size  Location     Type
		None
 Auto vars:     Size  Location     Type
		None
 Return value:  Size  Location     Type
                  1    wreg      unsigned char 
 Registers used:
		wreg, status,2, cstack
 Tracked objects:
		On entry : 
		On exit  : 
		Unchanged: 
 Data sizes:     COMRAM   BANK0   BANK1   BANK2   BANK3   BANK4   BANK5   BANK6   BANK7   BANK8   BANK9  BANK10  BANK11  BANK12  BANK13  BANK14
      Params:         0       0       0       0       0       0       0       0       0       0       0       0       0       0       0       0
      Locals:         0       0       0       0       0       0       0       0       0       0       0       0       0       0       0       0
      Temps:          0       0       0       0       0       0       0       0       0       0       0       0       0       0       0       0
      Totals:         0       0       0       0       0       0       0       0       0       0       0       0       0       0       0       0
Total ram usage:        0 bytes
 Hardware stack levels used:    1
 Hardware stack levels required when called:    5
 This function calls:
		_SPIPut2
 This function is called by:
		_EEPROMRead
 This function uses a non-reentrant model


 *************** function _MiApp_UnicastAddress *****************
 Defined at:
		line 224 in file "../src/Bridge.c"
 Parameters:    Size  Location     Type
  DestinationA    2  153[BANK0 ] PTR unsigned char 
		 -> main@coord(8), 
  Origin          2  155[BANK0 ] PTR unsigned char 
		 -> NULL(0), 
  SecEn           1  157[BANK0 ] unsigned char 
 Auto vars:     Size  Location     Type
  src             8   64[BANK1 ] struct addr_t_def
 Return value:  Size  Location     Type
                  1    wreg      unsigned char 
 Registers used:
		wreg, fsr0l, fsr0h, fsr1l, fsr1h, fsr2l, fsr2h, status,2, status,0, tblptrl, tblptrh, tblptru, prodl, prodh, cstack
 Tracked objects:
		On entry : 
		On exit  : 
		Unchanged: 
 Data sizes:     COMRAM   BANK0   BANK1   BANK2   BANK3   BANK4   BANK5   BANK6   BANK7   BANK8   BANK9  BANK10  BANK11  BANK12  BANK13  BANK14
      Params:         0       5       0       0       0       0       0       0       0       0       0       0       0       0       0       0
      Locals:         0       0       8       0       0       0       0       0       0       0       0       0       0       0       0       0
      Temps:          0       0       0       0       0       0       0       0       0       0       0       0       0       0       0       0
      Totals:         0       5       8       0       0       0       0       0       0       0       0       0       0       0       0       0
Total ram usage:       13 bytes
 Hardware stack levels used:    1
 Hardware stack levels required when called:   14
 This function calls:
		_NetworkUnicastData
		_memcpy
 This function is called by:
		_main
 This function uses a non-reentrant model


 *************** function _NetworkUnicastData *****************
 Defined at:
		line 237 in file "../NetworkBridge.c"
 Parameters:    Size  Location     Type
  address         8  137[BANK0 ] struct addr_t_def
  data            2  145[BANK0 ] PTR unsigned char 
		 -> TxBuffer(64), 
  size            2  147[BANK0 ] unsigned int 
  isSecure        1  149[BANK0 ] unsigned char 
 Auto vars:     Size  Location     Type
  mAddress        2  150[BANK0 ] PTR struct addr_t_def
		 -> MyAddress(8), 
  res             1  152[BANK0 ] unsigned char 
 Return value:  Size  Location     Type
                  1    wreg      unsigned char 
 Registers used:
		wreg, fsr0l, fsr0h, fsr1l, fsr1h, fsr2l, fsr2h, status,2, status,0, tblptrl, tblptrh, tblptru, prodl, prodh, cstack
 Tracked objects:
		On entry : 
		On exit  : 
		Unchanged: 
 Data sizes:     COMRAM   BANK0   BANK1   BANK2   BANK3   BANK4   BANK5   BANK6   BANK7   BANK8   BANK9  BANK10  BANK11  BANK12  BANK13  BANK14
      Params:         0      13       0       0       0       0       0       0       0       0       0       0       0       0       0       0
      Locals:         0       3       0       0       0       0       0       0       0       0       0       0       0       0       0       0
      Temps:          0       0       0       0       0       0       0       0       0       0       0       0       0       0       0       0
      Totals:         0      16       0       0       0       0       0       0       0       0       0       0       0       0       0       0
Total ram usage:       16 bytes
 Hardware stack levels used:    1
 Hardware stack levels required when called:   13
 This function calls:
		_CoordinatorAddress
		_CoordinatorGenericAddress
		_DeviceManagerBufferDeviceData
		_DeviceManagerGetDeviceType
		_NetworkGetDeviceType
		_NetworkManagerGetMyAddress
		_TMSendDataToRFD
		_TMSendFormedPacketTowardsCoordinator
		_isSameAddress
 This function is called by:
		_MiApp_UnicastAddress
 This function uses a non-reentrant model


 *************** function _MiApp_TransceiverPowerState *****************
 Defined at:
		line 419 in file "../src/Bridge.c"
 Parameters:    Size  Location     Type
  Mode            1    wreg     unsigned char 
 Auto vars:     Size  Location     Type
  Mode            1   31[BANK0 ] unsigned char 
  res             1    0        unsigned char 
 Return value:  Size  Location     Type
                  1    wreg      unsigned char 
 Registers used:
		wreg, fsr1l, fsr1h, fsr2l, fsr2h, status,2, status,0, prodl, prodh, cstack
 Tracked objects:
		On entry : 
		On exit  : 
		Unchanged: 
 Data sizes:     COMRAM   BANK0   BANK1   BANK2   BANK3   BANK4   BANK5   BANK6   BANK7   BANK8   BANK9  BANK10  BANK11  BANK12  BANK13  BANK14
      Params:         0       0       0       0       0       0       0       0       0       0       0       0       0       0       0       0
      Locals:         0       2       0       0       0       0       0       0       0       0       0       0       0       0       0       0
      Temps:          0       0       0       0       0       0       0       0       0       0       0       0       0       0       0       0
      Totals:         0       2       0       0       0       0       0       0       0       0       0       0       0       0       0       0
Total ram usage:        2 bytes
 Hardware stack levels used:    1
 Hardware stack levels required when called:    9
 This function calls:
		_MiMAC_PowerState
 This function is called by:
		_main
 This function uses a non-reentrant model


 *************** function _MiMAC_PowerState *****************
 Defined at:
		line 1224 in file "../../../../../../framework/driver/mrf_miwi/src/drv_mrf_miwi_mesh_24j40.c"
 Parameters:    Size  Location     Type
  PowerState      1    wreg     unsigned char 
 Auto vars:     Size  Location     Type
  PowerState      1   20[BANK0 ] unsigned char 
  t2              4   26[BANK0 ] struct MIWI_TICK_t
  t1              4   21[BANK0 ] struct MIWI_TICK_t
  results         1   25[BANK0 ] unsigned char 
 Return value:  Size  Location     Type
                  1    wreg      unsigned char 
 Registers used:
		wreg, fsr1l, fsr1h, fsr2l, fsr2h, status,2, status,0, prodl, prodh, cstack
 Tracked objects:
		On entry : 
		On exit  : 
		Unchanged: 
 Data sizes:     COMRAM   BANK0   BANK1   BANK2   BANK3   BANK4   BANK5   BANK6   BANK7   BANK8   BANK9  BANK10  BANK11  BANK12  BANK13  BANK14
      Params:         0       0       0       0       0       0       0       0       0       0       0       0       0       0       0       0
      Locals:         0      10       0       0       0       0       0       0       0       0       0       0       0       0       0       0
      Temps:          0       0       0       0       0       0       0       0       0       0       0       0       0       0       0       0
      Totals:         0      10       0       0       0       0       0       0       0       0       0       0       0       0       0       0
Total ram usage:       10 bytes
 Hardware stack levels used:    1
 Hardware stack levels required when called:    8
 This function calls:
		_InitMRF24J40
		_MiMAC_SetAltAddress
		_MiWi_TickGetMs
		_PHYGetLongRAMAddr
		_PHYGetShortRAMAddr
		_PHYSetShortRAMAddr
 This function is called by:
		_MiApp_TransceiverPowerState
 This function uses a non-reentrant model


 *************** function _MiApp_SearchConnection *****************
 Defined at:
		line 344 in file "../src/Bridge.c"
 Parameters:    Size  Location     Type
  ScanDuartion    1    wreg     unsigned char 
  ChannelMap      4  188[BANK1 ] unsigned long 
 Auto vars:     Size  Location     Type
  ScanDuartion    1  204[BANK1 ] unsigned char 
  mask            4  207[BANK1 ] unsigned long 
  tStart          4  200[BANK1 ] struct MIWI_TICK_t
  msDuration      2  205[BANK1 ] unsigned int 
  i               1  212[BANK1 ] unsigned char 
  res             1  211[BANK1 ] unsigned char 
 Return value:  Size  Location     Type
                  1    wreg      unsigned char 
 Registers used:
		wreg, fsr0l, fsr0h, fsr1l, fsr1h, fsr2l, fsr2h, status,2, status,0, tblptrl, tblptrh, tblptru, prodl, prodh, cstack
 Tracked objects:
		On entry : 
		On exit  : 
		Unchanged: 
 Data sizes:     COMRAM   BANK0   BANK1   BANK2   BANK3   BANK4   BANK5   BANK6   BANK7   BANK8   BANK9  BANK10  BANK11  BANK12  BANK13  BANK14
      Params:         0       0       4       0       0       0       0       0       0       0       0       0       0       0       0       0
      Locals:         0       0      13       0       0       0       0       0       0       0       0       0       0       0       0       0
      Temps:          0       0       8       0       0       0       0       0       0       0       0       0       0       0       0       0
      Totals:         0       0      25       0       0       0       0       0       0       0       0       0       0       0       0       0
Total ram usage:       25 bytes
 Hardware stack levels used:    1
 Hardware stack levels required when called:   16
 This function calls:
		_MiApp_DiscardMessage
		_MiApp_MessageAvailable
		_MiApp_SetChannel
		_MiWi_TickGetMs
		_NetworkSendDiscoverRequest
		_memset
 This function is called by:
		_main
 This function uses a non-reentrant model


 *************** function _NetworkSendDiscoverRequest *****************
 Defined at:
		line 395 in file "../NetworkManager.c"
 Parameters:    Size  Location     Type
		None
 Auto vars:     Size  Location     Type
  databuff       64   59[BANK0 ] unsigned char [64]
  address         8  126[BANK0 ] struct addr_t_def
  size            2  123[BANK0 ] unsigned int 
  dhdr            1  125[BANK0 ] PTR struct net_data_head
		 -> NetworkSendDiscoverRequest@databuff(64), 
 Return value:  Size  Location     Type
                  1    wreg      void 
 Registers used:
		wreg, fsr0l, fsr0h, fsr1l, fsr1h, fsr2l, fsr2h, status,2, status,0, prodl, prodh, cstack
 Tracked objects:
		On entry : 
		On exit  : 
		Unchanged: 
 Data sizes:     COMRAM   BANK0   BANK1   BANK2   BANK3   BANK4   BANK5   BANK6   BANK7   BANK8   BANK9  BANK10  BANK11  BANK12  BANK13  BANK14
      Params:         0       0       0       0       0       0       0       0       0       0       0       0       0       0       0       0
      Locals:         0      75       0       0       0       0       0       0       0       0       0       0       0       0       0       0
      Temps:          0       0       0       0       0       0       0       0       0       0       0       0       0       0       0       0
      Totals:         0      75       0       0       0       0       0       0       0       0       0       0       0       0       0       0
Total ram usage:       75 bytes
 Hardware stack levels used:    1
 Hardware stack levels required when called:    8
 This function calls:
		_BroadcastManagerDelaySend
		_NetworkAddressSizeGet
		_NetworkPrepareSendPacket
		_memset
 This function is called by:
		_MiApp_SearchConnection
 This function uses a non-reentrant model


 *************** function _MiApp_MessageAvailable *****************
 Defined at:
		line 236 in file "../src/Bridge.c"
 Parameters:    Size  Location     Type
		None
 Auto vars:     Size  Location     Type
  src             8  180[BANK1 ] struct addr_t_def
 Return value:  Size  Location     Type
                  1    wreg      unsigned char 
 Registers used:
		wreg, fsr0l, fsr0h, fsr1l, fsr1h, fsr2l, fsr2h, status,2, status,0, tblptrl, tblptrh, tblptru, prodl, prodh, cstack
 Tracked objects:
		On entry : 
		On exit  : 
		Unchanged: 
 Data sizes:     COMRAM   BANK0   BANK1   BANK2   BANK3   BANK4   BANK5   BANK6   BANK7   BANK8   BANK9  BANK10  BANK11  BANK12  BANK13  BANK14
      Params:         0       0       0       0       0       0       0       0       0       0       0       0       0       0       0       0
      Locals:         0       0       8       0       0       0       0       0       0       0       0       0       0       0       0       0
      Temps:          0       4       0       0       0       0       0       0       0       0       0       0       0       0       0       0
      Totals:         0       4       8       0       0       0       0       0       0       0       0       0       0       0       0       0
Total ram usage:       12 bytes
 Hardware stack levels used:    1
 Hardware stack levels required when called:   15
 This function calls:
		_AddNodeToNetworkTable
		_MiMAC_ReceivedPacket
		_MiWi_TickGetMs
		_NetworkManagerTask
		_TimeTickISR
		_memcpy
		_radioReceivedPacket
 This function is called by:
		_main
		_MiApp_SearchConnection
 This function uses a non-reentrant model


 *************** function _radioReceivedPacket *****************
 Defined at:
		line 48 in file "../NetworkBridge.c"
 Parameters:    Size  Location     Type
  source          8  134[BANK1 ] struct addr_t_def
  PANID           2  142[BANK1 ] unsigned int 
  data            2  144[BANK1 ] PTR unsigned char 
		 -> RxBuffer.Payload(127), RxBuffer(256), 
  size            2  146[BANK1 ] unsigned int 
  rssi            1  148[BANK1 ] unsigned char 
  isBroadcast     1  149[BANK1 ] unsigned char 
  isSecure        1  150[BANK1 ] unsigned char 
 Auto vars:     Size  Location     Type
  bt              2  158[BANK1 ] unsigned int 
  parent          8  170[BANK1 ] struct addr_t_def
  child           8  162[BANK1 ] struct addr_t_def
  crc             4  154[BANK1 ] unsigned long 
  dhdr            2  178[BANK1 ] PTR struct net_data_head
		 -> RxBuffer.Payload(127), RxBuffer(256), 
  rhdr            2  160[BANK1 ] PTR struct net_routing_h
		 -> RxBuffer.Payload(127), RxBuffer(256), 
  myAddr          2  151[BANK1 ] PTR struct addr_t_def
		 -> MyAddress(8), 
 Return value:  Size  Location     Type
                  1    wreg      void 
 Registers used:
		wreg, fsr0l, fsr0h, fsr1l, fsr1h, fsr2l, fsr2h, status,2, status,0, tblptrl, tblptrh, tblptru, prodl, prodh, cstack
 Tracked objects:
		On entry : 
		On exit  : 
		Unchanged: 
 Data sizes:     COMRAM   BANK0   BANK1   BANK2   BANK3   BANK4   BANK5   BANK6   BANK7   BANK8   BANK9  BANK10  BANK11  BANK12  BANK13  BANK14
      Params:         0       0      17       0       0       0       0       0       0       0       0       0       0       0       0       0
      Locals:         0       0      29       0       0       0       0       0       0       0       0       0       0       0       0       0
      Temps:          0       6       0       0       0       0       0       0       0       0       0       0       0       0       0       0
      Totals:         0       6      46       0       0       0       0       0       0       0       0       0       0       0       0       0
Total ram usage:       52 bytes
 Hardware stack levels used:    1
 Hardware stack levels required when called:   14
 This function calls:
		_BlinkRedLED
		_BroadcastManagerDelaySend
		_CoordinatorGenericAddress
		_DeviceManagerBufferDeviceData
		_DeviceManagerGetDeviceType
		_GetRouteAddressOfChild
		_IsMemberOfNetwork
		_IsNetworkDevice
		_LE_RemoveNeighborDevice
		_LE_processReceivedMessage
		_NetworkDiscoveredEvent
		_NetworkGetDeviceType
		_NetworkGetPANID
		_NetworkGetParentAddress
		_NetworkManagerGetMyAddress
		_NetworkManagerProcessIncomingData
		_NetworkSendDiscoverResponse
		_RouteManagerProcessReceive
		_TMSendFormedPacketTowardsCoordinator
		_TunnelManagerGetTunnel
		_TunnelManagerInvalidateTunnel
		_TunnelManagerSetTunnel
		_crc32
		_isBroadcastAddress
		_isKnownPacket
		_isSameAddress
		_memcpy
		_radioDiscardPacket
		_radioUnicast
 This function is called by:
		_MiApp_MessageAvailable
 This function uses a non-reentrant model


 *************** function _radioDiscardPacket *****************
 Defined at:
		line 143 in file "../src/Bridge.c"
 Parameters:    Size  Location     Type
		None
 Auto vars:     Size  Location     Type
		None
 Return value:  Size  Location     Type
                  1    wreg      void 
 Registers used:
		wreg, fsr2l, fsr2h, status,2, status,0, prodl, prodh, cstack
 Tracked objects:
		On entry : 
		On exit  : 
		Unchanged: 
 Data sizes:     COMRAM   BANK0   BANK1   BANK2   BANK3   BANK4   BANK5   BANK6   BANK7   BANK8   BANK9  BANK10  BANK11  BANK12  BANK13  BANK14
      Params:         0       0       0       0       0       0       0       0       0       0       0       0       0       0       0       0
      Locals:         0       0       0       0       0       0       0       0       0       0       0       0       0       0       0       0
      Temps:          0       0       0       0       0       0       0       0       0       0       0       0       0       0       0       0
      Totals:         0       0       0       0       0       0       0       0       0       0       0       0       0       0       0       0
Total ram usage:        0 bytes
 Hardware stack levels used:    1
 Hardware stack levels required when called:    5
 This function calls:
		_MiMAC_DiscardPacket
 This function is called by:
		_radioReceivedPacket
 This function uses a non-reentrant model


 *************** function _isKnownPacket *****************
 Defined at:
		line 17 in file "../Cache.c"
 Parameters:    Size  Location     Type
  hash            4   56[BANK0 ] unsigned long 
 Auto vars:     Size  Location     Type
  zeros          12   66[BANK0 ] unsigned char [12]
  OldestTick      8   85[BANK0 ] struct TickMS_t_def
  i               2   93[BANK0 ] unsigned int 
  emptyindex      2   83[BANK0 ] unsigned int 
  index           2   81[BANK0 ] unsigned int 
  oldestindex     2   79[BANK0 ] unsigned int 
  unknown         1   78[BANK0 ] unsigned char 
 Return value:  Size  Location     Type
                  1    wreg      unsigned char 
 Registers used:
		wreg, fsr0l, fsr0h, fsr1l, fsr1h, fsr2l, fsr2h, status,2, status,0, prodl, prodh, cstack
 Tracked objects:
		On entry : 
		On exit  : 
		Unchanged: 
 Data sizes:     COMRAM   BANK0   BANK1   BANK2   BANK3   BANK4   BANK5   BANK6   BANK7   BANK8   BANK9  BANK10  BANK11  BANK12  BANK13  BANK14
      Params:         0       4       0       0       0       0       0       0       0       0       0       0       0       0       0       0
      Locals:         0      29       0       0       0       0       0       0       0       0       0       0       0       0       0       0
      Temps:          0       6       0       0       0       0       0       0       0       0       0       0       0       0       0       0
      Totals:         0      39       0       0       0       0       0       0       0       0       0       0       0       0       0       0
Total ram usage:       39 bytes
 Hardware stack levels used:    1
 Hardware stack levels required when called:    8
 This function calls:
		_MSTickGet
		_MSTickGetDiffNow
		_memcmp
		_memset
 This function is called by:
		_radioReceivedPacket
 This function uses a non-reentrant model


 *************** function _crc32 *****************
 Defined at:
		line 52 in file "../CRC32.c"
 Parameters:    Size  Location     Type
  crc             4    0[BANK0 ] unsigned long 
  buf             2    4[BANK0 ] PTR unsigned char 
		 -> RxBuffer.Payload(127), RxBuffer(256), 
  size            2    6[BANK0 ] unsigned int 
 Auto vars:     Size  Location     Type
  p               2   18[BANK0 ] PTR unsigned char 
		 -> RxBuffer.Payload(127), RxBuffer(256), 
 Return value:  Size  Location     Type
                  4    0[BANK0 ] unsigned long 
 Registers used:
		wreg, fsr2l, fsr2h, status,2, status,0, tblptrl, tblptrh, tblptru
 Tracked objects:
		On entry : 
		On exit  : 
		Unchanged: 
 Data sizes:     COMRAM   BANK0   BANK1   BANK2   BANK3   BANK4   BANK5   BANK6   BANK7   BANK8   BANK9  BANK10  BANK11  BANK12  BANK13  BANK14
      Params:         0       8       0       0       0       0       0       0       0       0       0       0       0       0       0       0
      Locals:         0       2       0       0       0       0       0       0       0       0       0       0       0       0       0       0
      Temps:          0      10       0       0       0       0       0       0       0       0       0       0       0       0       0       0
      Totals:         0      20       0       0       0       0       0       0       0       0       0       0       0       0       0       0
Total ram usage:       20 bytes
 Hardware stack levels used:    1
 Hardware stack levels required when called:    4
 This function calls:
		Nothing
 This function is called by:
		_radioReceivedPacket
 This function uses a non-reentrant model


 *************** function _TunnelManagerSetTunnel *****************
 Defined at:
		line 22 in file "../TunnelManager.c"
 Parameters:    Size  Location     Type
  device          2   32[BANK0 ] PTR struct addr_t_def
		 -> radioReceivedPacket@child(8), 
  parent          2   34[BANK0 ] PTR struct addr_t_def
		 -> radioReceivedPacket@parent(8), 
 Auto vars:     Size  Location     Type
  OldestTick      8   48[BANK0 ] struct TickMS_t_def
  trec            8    0        struct TickMS_t_def
  i               2   56[BANK0 ] unsigned int 
  index           2   46[BANK0 ] unsigned int 
  emptyindex      2   44[BANK0 ] unsigned int 
  oldestindex     2   42[BANK0 ] unsigned int 
  unknown         1    0        unsigned char 
 Return value:  Size  Location     Type
                  1    wreg      void 
 Registers used:
		wreg, fsr0l, fsr0h, fsr1l, fsr1h, fsr2l, fsr2h, status,2, status,0, prodl, prodh, cstack
 Tracked objects:
		On entry : 
		On exit  : 
		Unchanged: 
 Data sizes:     COMRAM   BANK0   BANK1   BANK2   BANK3   BANK4   BANK5   BANK6   BANK7   BANK8   BANK9  BANK10  BANK11  BANK12  BANK13  BANK14
      Params:         0       4       0       0       0       0       0       0       0       0       0       0       0       0       0       0
      Locals:         0      16       0       0       0       0       0       0       0       0       0       0       0       0       0       0
      Temps:          0       6       0       0       0       0       0       0       0       0       0       0       0       0       0       0
      Totals:         0      26       0       0       0       0       0       0       0       0       0       0       0       0       0       0
Total ram usage:       26 bytes
 Hardware stack levels used:    1
 Hardware stack levels required when called:    7
 This function calls:
		_MSTickGet
		_NetworkAddressSizeGet
		_isSameAddress
		_memcpy
		_memset
 This function is called by:
		_radioReceivedPacket
 This function uses a non-reentrant model


 *************** function _RouteManagerProcessReceive *****************
 Defined at:
		line 310 in file "../RouteManager.c"
 Parameters:    Size  Location     Type
  source          2   78[BANK0 ] PTR struct addr_t_def
		 -> radioReceivedPacket@source(8), 
  data            2   80[BANK0 ] PTR unsigned char 
		 -> RxBuffer.Payload(127), RxBuffer(256), 
  len             1   82[BANK0 ] unsigned char 
 Auto vars:     Size  Location     Type
  from            8   87[BANK0 ] struct addr_t_def
  rcvBeacon       2   95[BANK0 ] PTR struct net_routing_h
		 -> RxBuffer.Payload(127), RxBuffer(256), 
  congested       1   86[BANK0 ] unsigned char 
  res             1    0        enum E180
 Return value:  Size  Location     Type
                  1    wreg      enum E179
 Registers used:
		wreg, fsr0l, fsr0h, fsr1l, fsr1h, fsr2l, fsr2h, status,2, status,0, tblptrl, tblptrh, tblptru, prodl, prodh, cstack
 Tracked objects:
		On entry : 
		On exit  : 
		Unchanged: 
 Data sizes:     COMRAM   BANK0   BANK1   BANK2   BANK3   BANK4   BANK5   BANK6   BANK7   BANK8   BANK9  BANK10  BANK11  BANK12  BANK13  BANK14
      Params:         0       5       0       0       0       0       0       0       0       0       0       0       0       0       0       0
      Locals:         0      12       0       0       0       0       0       0       0       0       0       0       0       0       0       0
      Temps:          0       2       0       0       0       0       0       0       0       0       0       0       0       0       0       0
      Totals:         0      19       0       0       0       0       0       0       0       0       0       0       0       0       0       0
Total ram usage:       19 bytes
 Hardware stack levels used:    1
 Hardware stack levels required when called:   10
 This function calls:
		_BeaconManagerTrigger
		_LE_InsertNeighbor
		_LE_PinNeighbor
		_NetworkAddressSizeGet
		_RouteManagerSetNeighborCongested
		_RouterEvicted
		_isInvalidAddress
		_memcpy
		_routingTableUpdateEntry
 This function is called by:
		_radioReceivedPacket
 This function uses a non-reentrant model


 *************** function _routingTableUpdateEntry *****************
 Defined at:
		line 247 in file "../RouteManager.c"
 Parameters:    Size  Location     Type
  from            8   57[BANK0 ] struct addr_t_def
  parent          8   65[BANK0 ] struct addr_t_def
  etx             2   73[BANK0 ] unsigned int 
 Auto vars:     Size  Location     Type
  linkEtx         2   75[BANK0 ] unsigned int 
  idx             1   77[BANK0 ] unsigned char 
  res             1    0        enum E180
 Return value:  Size  Location     Type
                  1    wreg      enum E180
 Registers used:
		wreg, fsr0l, fsr0h, fsr1l, fsr1h, fsr2l, fsr2h, status,2, status,0, tblptrl, tblptrh, tblptru, prodl, prodh, cstack
 Tracked objects:
		On entry : 
		On exit  : 
		Unchanged: 
 Data sizes:     COMRAM   BANK0   BANK1   BANK2   BANK3   BANK4   BANK5   BANK6   BANK7   BANK8   BANK9  BANK10  BANK11  BANK12  BANK13  BANK14
      Params:         0      18       0       0       0       0       0       0       0       0       0       0       0       0       0       0
      Locals:         0       3       0       0       0       0       0       0       0       0       0       0       0       0       0       0
      Temps:          0       0       0       0       0       0       0       0       0       0       0       0       0       0       0       0
      Totals:         0      21       0       0       0       0       0       0       0       0       0       0       0       0       0       0
Total ram usage:       21 bytes
 Hardware stack levels used:    1
 Hardware stack levels required when called:    8
 This function calls:
		_LELinkQualityGet
		_passLinkEtxThreshold
		_routingTableFind
 This function is called by:
		_RouteManagerProcessReceive
 This function uses a non-reentrant model


 *************** function _RouteManagerSetNeighborCongested *****************
 Defined at:
		line 294 in file "../RouteManager.c"
 Parameters:    Size  Location     Type
  n               8    0[BANK0 ] struct addr_t_def
  congested       1    8[BANK0 ] unsigned char 
 Auto vars:     Size  Location     Type
		None
 Return value:  Size  Location     Type
                  1    wreg      void 
 Registers used:
		None
 Tracked objects:
		On entry : 
		On exit  : 
		Unchanged: 
 Data sizes:     COMRAM   BANK0   BANK1   BANK2   BANK3   BANK4   BANK5   BANK6   BANK7   BANK8   BANK9  BANK10  BANK11  BANK12  BANK13  BANK14
      Params:         0       9       0       0       0       0       0       0       0       0       0       0       0       0       0       0
      Locals:         0       0       0       0       0       0       0       0       0       0       0       0       0       0       0       0
      Temps:          0       0       0       0       0       0       0       0       0       0       0       0       0       0       0       0
      Totals:         0       9       0       0       0       0       0       0       0       0       0       0       0       0       0       0
Total ram usage:        9 bytes
 Hardware stack levels used:    1
 Hardware stack levels required when called:    4
 This function calls:
		Nothing
 This function is called by:
		_RouteManagerProcessReceive
 This function uses a non-reentrant model


 *************** function _LE_InsertNeighbor *****************
 Defined at:
		line 240 in file "../LinkEstimator.c"
 Parameters:    Size  Location     Type
  neighbor        8   60[BANK0 ] struct addr_t_def
  devType         1   68[BANK0 ] enum E144
 Auto vars:     Size  Location     Type
  nidx            1   71[BANK0 ] unsigned char 
  res             1    0        enum E179
 Return value:  Size  Location     Type
                  1    wreg      enum E180
 Registers used:
		wreg, fsr0l, fsr0h, fsr1l, fsr1h, fsr2l, fsr2h, status,2, status,0, tblptrl, tblptrh, tblptru, prodl, prodh, cstack
 Tracked objects:
		On entry : 
		On exit  : 
		Unchanged: 
 Data sizes:     COMRAM   BANK0   BANK1   BANK2   BANK3   BANK4   BANK5   BANK6   BANK7   BANK8   BANK9  BANK10  BANK11  BANK12  BANK13  BANK14
      Params:         0       9       0       0       0       0       0       0       0       0       0       0       0       0       0       0
      Locals:         0       2       0       0       0       0       0       0       0       0       0       0       0       0       0       0
      Temps:          0       1       0       0       0       0       0       0       0       0       0       0       0       0       0       0
      Totals:         0      12       0       0       0       0       0       0       0       0       0       0       0       0       0       0
Total ram usage:       12 bytes
 Hardware stack levels used:    1
 Hardware stack levels required when called:    9
 This function calls:
		_RouterEvicted
		_le_findEmptyNeighborIdx
		_le_findIdx
		_le_findWorstNeighborIdx
		_le_initNeighborIdx
 This function is called by:
		_RouteManagerProcessReceive
 This function uses a non-reentrant model


 *************** function _NetworkSendDiscoverResponse *****************
 Defined at:
		line 407 in file "../NetworkManager.c"
 Parameters:    Size  Location     Type
		None
 Auto vars:     Size  Location     Type
  databuff       64   59[BANK0 ] unsigned char [64]
  address         8  126[BANK0 ] struct addr_t_def
  size            2  123[BANK0 ] unsigned int 
  dhdr            1  125[BANK0 ] PTR struct net_data_head
		 -> NetworkSendDiscoverResponse@databuff(64), 
 Return value:  Size  Location     Type
                  1    wreg      void 
 Registers used:
		wreg, fsr0l, fsr0h, fsr1l, fsr1h, fsr2l, fsr2h, status,2, status,0, prodl, prodh, cstack
 Tracked objects:
		On entry : 
		On exit  : 
		Unchanged: 
 Data sizes:     COMRAM   BANK0   BANK1   BANK2   BANK3   BANK4   BANK5   BANK6   BANK7   BANK8   BANK9  BANK10  BANK11  BANK12  BANK13  BANK14
      Params:         0       0       0       0       0       0       0       0       0       0       0       0       0       0       0       0
      Locals:         0      75       0       0       0       0       0       0       0       0       0       0       0       0       0       0
      Temps:          0       0       0       0       0       0       0       0       0       0       0       0       0       0       0       0
      Totals:         0      75       0       0       0       0       0       0       0       0       0       0       0       0       0       0
Total ram usage:       75 bytes
 Hardware stack levels used:    1
 Hardware stack levels required when called:    8
 This function calls:
		_BroadcastManagerDelaySend
		_NetworkAddressSizeGet
		_NetworkPrepareSendPacket
		_isNetworkSecurityEnabled
		_memset
 This function is called by:
		_radioReceivedPacket
 This function uses a non-reentrant model


 *************** function _NetworkManagerProcessIncomingData *****************
 Defined at:
		line 276 in file "../NetworkManager.c"
 Parameters:    Size  Location     Type
  data            2  137[BANK0 ] PTR unsigned char 
		 -> RxBuffer.Payload(127), RxBuffer(256), 
  size            2  139[BANK0 ] unsigned int 
  isBroadcast     1  141[BANK0 ] unsigned char 
  isSecure        1  142[BANK0 ] unsigned char 
 Auto vars:     Size  Location     Type
  buffer         64   64[BANK1 ] unsigned char [64]
  dHdr            2  132[BANK1 ] PTR struct net_data_head
		 -> RxBuffer.Payload(127), RxBuffer(256), 
  packetsize      2  129[BANK1 ] unsigned int 
  isSecurePack    1  131[BANK1 ] unsigned char 
  isFormed        1  128[BANK1 ] unsigned char 
 Return value:  Size  Location     Type
                  1    wreg      void 
 Registers used:
		wreg, fsr0l, fsr0h, fsr1l, fsr1h, fsr2l, fsr2h, status,2, status,0, tblptrl, tblptrh, tblptru, prodl, prodh, cstack
 Tracked objects:
		On entry : 
		On exit  : 
		Unchanged: 
 Data sizes:     COMRAM   BANK0   BANK1   BANK2   BANK3   BANK4   BANK5   BANK6   BANK7   BANK8   BANK9  BANK10  BANK11  BANK12  BANK13  BANK14
      Params:         0       6       0       0       0       0       0       0       0       0       0       0       0       0       0       0
      Locals:         0       0      70       0       0       0       0       0       0       0       0       0       0       0       0       0
      Temps:          0       1       0       0       0       0       0       0       0       0       0       0       0       0       0       0
      Totals:         0       7      70       0       0       0       0       0       0       0       0       0       0       0       0       0
Total ram usage:       77 bytes
 Hardware stack levels used:    1
 Hardware stack levels required when called:   13
 This function calls:
		_BeaconManagerTrigger
		_DeviceManagerGetDeviceData
		_IsNetworkDevice
		_NetworkDataArrivedEvent
		_NetworkGetDeviceType
		_TMSendDataToRFD
		_TMSendFormedPacketToRFD
		_isInvalidAddress
		_memcpy
 This function is called by:
		_radioReceivedPacket
 This function uses a non-reentrant model


 *************** function _TMSendDataToRFD *****************
 Defined at:
		line 195 in file "../TransportManager.c"
 Parameters:    Size  Location     Type
  device          8  123[BANK0 ] struct addr_t_def
  pType           1  131[BANK0 ] enum E232
  data            2  132[BANK0 ] PTR unsigned char 
		 -> NetworkManagerProcessIncomingData@buffer(64), NULL(0), TxBuffer(64), 
  size            2  134[BANK0 ] unsigned int 
  isSecure        1  136[BANK0 ] unsigned char 
 Auto vars:     Size  Location     Type
  databuff       64    0[BANK1 ] unsigned char [64]
 Return value:  Size  Location     Type
                  1    wreg      unsigned char 
 Registers used:
		wreg, fsr0l, fsr0h, fsr1l, fsr1h, fsr2l, fsr2h, status,2, status,0, tblptrl, tblptrh, tblptru, prodl, prodh, cstack
 Tracked objects:
		On entry : 
		On exit  : 
		Unchanged: 
 Data sizes:     COMRAM   BANK0   BANK1   BANK2   BANK3   BANK4   BANK5   BANK6   BANK7   BANK8   BANK9  BANK10  BANK11  BANK12  BANK13  BANK14
      Params:         0      14       0       0       0       0       0       0       0       0       0       0       0       0       0       0
      Locals:         0       0      64       0       0       0       0       0       0       0       0       0       0       0       0       0
      Temps:          0       0       0       0       0       0       0       0       0       0       0       0       0       0       0       0
      Totals:         0      14      64       0       0       0       0       0       0       0       0       0       0       0       0       0
Total ram usage:       78 bytes
 Hardware stack levels used:    1
 Hardware stack levels required when called:   12
 This function calls:
		_NetworkPrepareSendPacket
		_TMSendFormedPacketToRFD
 This function is called by:
		_NetworkUnicastData
		_NetworkManagerProcessIncomingData
 This function uses a non-reentrant model


 *************** function _TMSendFormedPacketToRFD *****************
 Defined at:
		line 202 in file "../TransportManager.c"
 Parameters:    Size  Location     Type
  device          8   96[BANK0 ] struct addr_t_def
  data            2  104[BANK0 ] PTR unsigned char 
		 -> NetworkManagerProcessIncomingData@buffer(64), TMSendDataToRFD@databuff(64), 
  size            2  106[BANK0 ] unsigned int 
  isSecure        1  108[BANK0 ] unsigned char 
 Auto vars:     Size  Location     Type
  parent          8  115[BANK0 ] struct addr_t_def
  dhdr            2  113[BANK0 ] PTR struct net_data_head
		 -> NetworkManagerProcessIncomingData@buffer(64), TMSendDataToRFD@databuff(64), 
  myaddr          2  110[BANK0 ] PTR struct addr_t_def
		 -> MyAddress(8), 
  res             1  112[BANK0 ] unsigned char 
 Return value:  Size  Location     Type
                  1    wreg      unsigned char 
 Registers used:
		wreg, fsr0l, fsr0h, fsr1l, fsr1h, fsr2l, fsr2h, status,2, status,0, tblptrl, tblptrh, tblptru, prodl, prodh, cstack
 Tracked objects:
		On entry : 
		On exit  : 
		Unchanged: 
 Data sizes:     COMRAM   BANK0   BANK1   BANK2   BANK3   BANK4   BANK5   BANK6   BANK7   BANK8   BANK9  BANK10  BANK11  BANK12  BANK13  BANK14
      Params:         0      13       0       0       0       0       0       0       0       0       0       0       0       0       0       0
      Locals:         0      13       0       0       0       0       0       0       0       0       0       0       0       0       0       0
      Temps:          0       1       0       0       0       0       0       0       0       0       0       0       0       0       0       0
      Totals:         0      27       0       0       0       0       0       0       0       0       0       0       0       0       0       0
Total ram usage:       27 bytes
 Hardware stack levels used:    1
 Hardware stack levels required when called:   11
 This function calls:
		_BroadcastManagerDelaySend
		_GetRouteAddressOfChild
		_LE_RemoveNeighborDevice
		_NetworkGetDeviceType
		_NetworkGetPANID
		_NetworkGetParentAddress
		_NetworkManagerGetMyAddress
		_TMSendFormedPacketTowardsCoordinator
		_TunnelManagerGetTunnel
		_TunnelManagerInvalidateTunnel
		_isBroadcastAddress
		_isSameAddress
		_radioUnicast
 This function is called by:
		_TMSendDataToRFD
		_NetworkManagerProcessIncomingData
 This function uses a non-reentrant model


 *************** function _TunnelManagerInvalidateTunnel *****************
 Defined at:
		line 96 in file "../TunnelManager.c"
 Parameters:    Size  Location     Type
  device          8   32[BANK0 ] struct addr_t_def
 Auto vars:     Size  Location     Type
  addr            8   42[BANK0 ] struct addr_t_def
  i               2   50[BANK0 ] unsigned int 
 Return value:  Size  Location     Type
                  1    wreg      void 
 Registers used:
		wreg, fsr0l, fsr0h, fsr1l, fsr1h, fsr2l, fsr2h, status,2, status,0, prodl, prodh, cstack
 Tracked objects:
		On entry : 
		On exit  : 
		Unchanged: 
 Data sizes:     COMRAM   BANK0   BANK1   BANK2   BANK3   BANK4   BANK5   BANK6   BANK7   BANK8   BANK9  BANK10  BANK11  BANK12  BANK13  BANK14
      Params:         0       8       0       0       0       0       0       0       0       0       0       0       0       0       0       0
      Locals:         0      10       0       0       0       0       0       0       0       0       0       0       0       0       0       0
      Temps:          0       2       0       0       0       0       0       0       0       0       0       0       0       0       0       0
      Totals:         0      20       0       0       0       0       0       0       0       0       0       0       0       0       0       0
Total ram usage:       20 bytes
 Hardware stack levels used:    1
 Hardware stack levels required when called:    6
 This function calls:
		_NetworkAddressSizeGet
		_isSameAddress
		_memcpy
		_memset
 This function is called by:
		_radioReceivedPacket
		_TMSendFormedPacketToRFD
 This function uses a non-reentrant model


 *************** function _TunnelManagerGetTunnel *****************
 Defined at:
		line 70 in file "../TunnelManager.c"
 Parameters:    Size  Location     Type
  device          8   56[BANK0 ] struct addr_t_def
 Auto vars:     Size  Location     Type
  retAddr         8   86[BANK0 ] struct addr_t_def
  addr            8   78[BANK0 ] struct addr_t_def
  trec            8   70[BANK0 ] struct TickMS_t_def
  i               2   94[BANK0 ] unsigned int 
 Return value:  Size  Location     Type
                  8   56[BANK0 ] struct addr_t_def
 Registers used:
		wreg, fsr0l, fsr0h, fsr1l, fsr1h, fsr2l, fsr2h, status,2, status,0, prodl, prodh, cstack
 Tracked objects:
		On entry : 
		On exit  : 
		Unchanged: 
 Data sizes:     COMRAM   BANK0   BANK1   BANK2   BANK3   BANK4   BANK5   BANK6   BANK7   BANK8   BANK9  BANK10  BANK11  BANK12  BANK13  BANK14
      Params:         0       8       0       0       0       0       0       0       0       0       0       0       0       0       0       0
      Locals:         0      26       0       0       0       0       0       0       0       0       0       0       0       0       0       0
      Temps:          0       6       0       0       0       0       0       0       0       0       0       0       0       0       0       0
      Totals:         0      40       0       0       0       0       0       0       0       0       0       0       0       0       0       0
Total ram usage:       40 bytes
 Hardware stack levels used:    1
 Hardware stack levels required when called:    8
 This function calls:
		_MSTickGetDiffNow
		_NetworkAddressSizeGet
		_isSameAddress
		_memcpy
		_memset
 This function is called by:
		_radioReceivedPacket
		_TMSendFormedPacketToRFD
 This function uses a non-reentrant model


 *************** function _TMSendFormedPacketTowardsCoordinator *****************
 Defined at:
		line 151 in file "../TransportManager.c"
 Parameters:    Size  Location     Type
  data            2   35[BANK0 ] PTR unsigned char 
		 -> NetworkManagerProcessIncomingData@buffer(64), TMSendDataToRFD@databuff(64), RxBuffer.Payload(127), RxBuffer(256), 
		 -> TxBuffer(64), 
  size            2   37[BANK0 ] unsigned int 
  isFormed        1   39[BANK0 ] unsigned char 
  isSecure        1   40[BANK0 ] unsigned char 
 Auto vars:     Size  Location     Type
  i               2   44[BANK0 ] unsigned int 
  res             1   43[BANK0 ] unsigned char 
 Return value:  Size  Location     Type
                  1    wreg      unsigned char 
 Registers used:
		wreg, fsr0l, fsr0h, fsr1l, fsr1h, fsr2l, fsr2h, status,2, status,0, tblptrl, tblptrh, tblptru, prodl, prodh, cstack
 Tracked objects:
		On entry : 
		On exit  : 
		Unchanged: 
 Data sizes:     COMRAM   BANK0   BANK1   BANK2   BANK3   BANK4   BANK5   BANK6   BANK7   BANK8   BANK9  BANK10  BANK11  BANK12  BANK13  BANK14
      Params:         0       6       0       0       0       0       0       0       0       0       0       0       0       0       0       0
      Locals:         0       3       0       0       0       0       0       0       0       0       0       0       0       0       0       0
      Temps:          0       2       0       0       0       0       0       0       0       0       0       0       0       0       0       0
      Totals:         0      11       0       0       0       0       0       0       0       0       0       0       0       0       0       0
Total ram usage:       11 bytes
 Hardware stack levels used:    1
 Hardware stack levels required when called:    8
 This function calls:
		_NetworkHasRoute
		_memcpy
 This function is called by:
		_radioReceivedPacket
		_NetworkUnicastData
		_TMSendFormedPacketToRFD
 This function uses a non-reentrant model


 *************** function _LE_RemoveNeighborDevice *****************
 Defined at:
		line 519 in file "../LinkEstimator.c"
 Parameters:    Size  Location     Type
  device          8   60[BANK0 ] struct addr_t_def
 Auto vars:     Size  Location     Type
  i               2   70[BANK0 ] unsigned int 
 Return value:  Size  Location     Type
                  1    wreg      void 
 Registers used:
		wreg, fsr0l, fsr0h, fsr1l, fsr1h, fsr2l, fsr2h, status,2, status,0, tblptrl, tblptrh, tblptru, prodl, prodh, cstack
 Tracked objects:
		On entry : 
		On exit  : 
		Unchanged: 
 Data sizes:     COMRAM   BANK0   BANK1   BANK2   BANK3   BANK4   BANK5   BANK6   BANK7   BANK8   BANK9  BANK10  BANK11  BANK12  BANK13  BANK14
      Params:         0       8       0       0       0       0       0       0       0       0       0       0       0       0       0       0
      Locals:         0       2       0       0       0       0       0       0       0       0       0       0       0       0       0       0
      Temps:          0       2       0       0       0       0       0       0       0       0       0       0       0       0       0       0
      Totals:         0      12       0       0       0       0       0       0       0       0       0       0       0       0       0       0
Total ram usage:       12 bytes
 Hardware stack levels used:    1
 Hardware stack levels required when called:    9
 This function calls:
		_RouterEvicted
		_le_findIdx
 This function is called by:
		_radioReceivedPacket
		_TMSendFormedPacketToRFD
 This function uses a non-reentrant model


 *************** function _GetRouteAddressOfChild *****************
 Defined at:
		line 438 in file "../RouteManager.c"
 Parameters:    Size  Location     Type
  child           8   54[BANK0 ] struct addr_t_def
 Auto vars:     Size  Location     Type
  res             8   62[BANK0 ] struct addr_t_def
  i               2   70[BANK0 ] unsigned int 
 Return value:  Size  Location     Type
                  8   54[BANK0 ] struct addr_t_def
 Registers used:
		wreg, fsr0l, fsr0h, fsr1l, fsr1h, fsr2l, fsr2h, status,2, status,0, prodl, prodh, cstack
 Tracked objects:
		On entry : 
		On exit  : 
		Unchanged: 
 Data sizes:     COMRAM   BANK0   BANK1   BANK2   BANK3   BANK4   BANK5   BANK6   BANK7   BANK8   BANK9  BANK10  BANK11  BANK12  BANK13  BANK14
      Params:         0       8       0       0       0       0       0       0       0       0       0       0       0       0       0       0
      Locals:         0      10       0       0       0       0       0       0       0       0       0       0       0       0       0       0
      Temps:          0       0       0       0       0       0       0       0       0       0       0       0       0       0       0       0
      Totals:         0      18       0       0       0       0       0       0       0       0       0       0       0       0       0       0
Total ram usage:       18 bytes
 Hardware stack levels used:    1
 Hardware stack levels required when called:    7
 This function calls:
		_CoordinatorAddress
		_LE_GetNeighborDeviceType
		_RoutingTableFindDeviceOrParent
		_le_findIdx
 This function is called by:
		_radioReceivedPacket
		_TMSendFormedPacketToRFD
 This function uses a non-reentrant model


 *************** function _RoutingTableFindDeviceOrParent *****************
 Defined at:
		line 413 in file "../RouteManager.c"
 Parameters:    Size  Location     Type
  address         8   32[BANK0 ] struct addr_t_def
 Auto vars:     Size  Location     Type
  res             8   44[BANK0 ] struct addr_t_def
  entry           2   52[BANK0 ] PTR struct routing_table
		 -> routingTable(210), 
  i               2   42[BANK0 ] unsigned int 
 Return value:  Size  Location     Type
                  8   32[BANK0 ] struct addr_t_def
 Registers used:
		wreg, fsr0l, fsr0h, fsr1l, fsr1h, fsr2l, fsr2h, status,2, status,0, prodl, prodh, cstack
 Tracked objects:
		On entry : 
		On exit  : 
		Unchanged: 
 Data sizes:     COMRAM   BANK0   BANK1   BANK2   BANK3   BANK4   BANK5   BANK6   BANK7   BANK8   BANK9  BANK10  BANK11  BANK12  BANK13  BANK14
      Params:         0       8       0       0       0       0       0       0       0       0       0       0       0       0       0       0
      Locals:         0      12       0       0       0       0       0       0       0       0       0       0       0       0       0       0
      Temps:          0       2       0       0       0       0       0       0       0       0       0       0       0       0       0       0
      Totals:         0      22       0       0       0       0       0       0       0       0       0       0       0       0       0       0
Total ram usage:       22 bytes
 Hardware stack levels used:    1
 Hardware stack levels required when called:    6
 This function calls:
		_NetworkAddressSizeGet
		_isSameAddress
		_memset
 This function is called by:
		_GetRouteAddressOfChild
 This function uses a non-reentrant model


 *************** function _LE_GetNeighborDeviceType *****************
 Defined at:
		line 509 in file "../LinkEstimator.c"
 Parameters:    Size  Location     Type
  index           2    0[BANK0 ] unsigned int 
 Auto vars:     Size  Location     Type
  dev             1    5[BANK0 ] enum E144
 Return value:  Size  Location     Type
                  1    wreg      enum E145
 Registers used:
		wreg, fsr2l, fsr2h, status,2, status,0, prodl, prodh
 Tracked objects:
		On entry : 
		On exit  : 
		Unchanged: 
 Data sizes:     COMRAM   BANK0   BANK1   BANK2   BANK3   BANK4   BANK5   BANK6   BANK7   BANK8   BANK9  BANK10  BANK11  BANK12  BANK13  BANK14
      Params:         0       2       0       0       0       0       0       0       0       0       0       0       0       0       0       0
      Locals:         0       1       0       0       0       0       0       0       0       0       0       0       0       0       0       0
      Temps:          0       3       0       0       0       0       0       0       0       0       0       0       0       0       0       0
      Totals:         0       6       0       0       0       0       0       0       0       0       0       0       0       0       0       0
Total ram usage:        6 bytes
 Hardware stack levels used:    1
 Hardware stack levels required when called:    4
 This function calls:
		Nothing
 This function is called by:
		_GetRouteAddressOfChild
 This function uses a non-reentrant model


 *************** function _CoordinatorAddress *****************
 Defined at:
		line 265 in file "../NetworkManager.c"
 Parameters:    Size  Location     Type
		None
 Auto vars:     Size  Location     Type
		None
 Return value:  Size  Location     Type
                  8    0[BANK0 ] struct addr_t_def
 Registers used:
		wreg, fsr0l, fsr0h, fsr2l, fsr2h, status,2, status,0
 Tracked objects:
		On entry : 
		On exit  : 
		Unchanged: 
 Data sizes:     COMRAM   BANK0   BANK1   BANK2   BANK3   BANK4   BANK5   BANK6   BANK7   BANK8   BANK9  BANK10  BANK11  BANK12  BANK13  BANK14
      Params:         0       8       0       0       0       0       0       0       0       0       0       0       0       0       0       0
      Locals:         0       0       0       0       0       0       0       0       0       0       0       0       0       0       0       0
      Temps:          0       0       0       0       0       0       0       0       0       0       0       0       0       0       0       0
      Totals:         0       8       0       0       0       0       0       0       0       0       0       0       0       0       0       0
Total ram usage:        8 bytes
 Hardware stack levels used:    1
 Hardware stack levels required when called:    4
 This function calls:
		Nothing
 This function is called by:
		_NetworkUnicastData
		_GetRouteAddressOfChild
 This function uses a non-reentrant model


 *************** function _BroadcastManagerDelaySend *****************
 Defined at:
		line 52 in file "../BroadcastManager.c"
 Parameters:    Size  Location     Type
  pkt             2   44[BANK0 ] PTR unsigned char 
		 -> NetworkSendDiscoverResponse@databuff(64), NetworkSendDiscoverRequest@databuff(64), NetworkManagerProcessIncomingData@buffer(64), TMSendDataToRFD@databuff(64), 
		 -> NetworkBroadcastData@databuff(64), RxBuffer.Payload(127), RxBuffer(256), 
  size            2   46[BANK0 ] unsigned int 
  isSecure        1   48[BANK0 ] unsigned char 
  isInterPan      1   49[BANK0 ] unsigned char 
 Auto vars:     Size  Location     Type
  i               2   57[BANK0 ] unsigned int 
  res             1   56[BANK0 ] unsigned char 
 Return value:  Size  Location     Type
                  1    wreg      unsigned char 
 Registers used:
		wreg, fsr0l, fsr0h, fsr1l, fsr1h, fsr2l, fsr2h, status,2, status,0, prodl, prodh, cstack
 Tracked objects:
		On entry : 
		On exit  : 
		Unchanged: 
 Data sizes:     COMRAM   BANK0   BANK1   BANK2   BANK3   BANK4   BANK5   BANK6   BANK7   BANK8   BANK9  BANK10  BANK11  BANK12  BANK13  BANK14
      Params:         0       6       0       0       0       0       0       0       0       0       0       0       0       0       0       0
      Locals:         0       3       0       0       0       0       0       0       0       0       0       0       0       0       0       0
      Temps:          0       6       0       0       0       0       0       0       0       0       0       0       0       0       0       0
      Totals:         0      15       0       0       0       0       0       0       0       0       0       0       0       0       0       0
Total ram usage:       15 bytes
 Hardware stack levels used:    1
 Hardware stack levels required when called:    7
 This function calls:
		_AddMSToTick
		_MSTickGet
		_krnd
		_memcpy
 This function is called by:
		_radioReceivedPacket
		_TMSendFormedPacketToRFD
		_NetworkSendDiscoverRequest
		_NetworkSendDiscoverResponse
		_NetworkBroadcastData
 This function uses a non-reentrant model


 *************** function _AddMSToTick *****************
 Defined at:
		line 57 in file "../TimeTick.c"
 Parameters:    Size  Location     Type
  tick            8   28[BANK0 ] struct TickMS_t_def
  ms              4   36[BANK0 ] unsigned long 
 Auto vars:     Size  Location     Type
		None
 Return value:  Size  Location     Type
                  8   28[BANK0 ] struct TickMS_t_def
 Registers used:
		wreg, fsr0l, fsr0h, fsr2l, fsr2h, status,2, status,0
 Tracked objects:
		On entry : 
		On exit  : 
		Unchanged: 
 Data sizes:     COMRAM   BANK0   BANK1   BANK2   BANK3   BANK4   BANK5   BANK6   BANK7   BANK8   BANK9  BANK10  BANK11  BANK12  BANK13  BANK14
      Params:         0      12       0       0       0       0       0       0       0       0       0       0       0       0       0       0
      Locals:         0       0       0       0       0       0       0       0       0       0       0       0       0       0       0       0
      Temps:          0       4       0       0       0       0       0       0       0       0       0       0       0       0       0       0
      Totals:         0      16       0       0       0       0       0       0       0       0       0       0       0       0       0       0
Total ram usage:       16 bytes
 Hardware stack levels used:    1
 Hardware stack levels required when called:    4
 This function calls:
		Nothing
 This function is called by:
		_BroadcastManagerDelaySend
 This function uses a non-reentrant model


 *************** function _NetworkDataArrivedEvent *****************
 Defined at:
		line 268 in file "../src/Bridge.c"
 Parameters:    Size  Location     Type
  source          8    8[BANK0 ] struct addr_t_def
  data            2   16[BANK0 ] PTR unsigned char 
		 -> userdata(36), 
  size            2   18[BANK0 ] unsigned int 
  isBroadcast     1   20[BANK0 ] unsigned char 
 Auto vars:     Size  Location     Type
		None
 Return value:  Size  Location     Type
                  1    wreg      void 
 Registers used:
		wreg, fsr1l, fsr1h, fsr2l, fsr2h, status,2, status,0, cstack
 Tracked objects:
		On entry : 
		On exit  : 
		Unchanged: 
 Data sizes:     COMRAM   BANK0   BANK1   BANK2   BANK3   BANK4   BANK5   BANK6   BANK7   BANK8   BANK9  BANK10  BANK11  BANK12  BANK13  BANK14
      Params:         0      13       0       0       0       0       0       0       0       0       0       0       0       0       0       0
      Locals:         0       0       0       0       0       0       0       0       0       0       0       0       0       0       0       0
      Temps:          0       0       0       0       0       0       0       0       0       0       0       0       0       0       0       0
      Totals:         0      13       0       0       0       0       0       0       0       0       0       0       0       0       0       0
Total ram usage:       13 bytes
 Hardware stack levels used:    1
 Hardware stack levels required when called:    5
 This function calls:
		_memset
 This function is called by:
		_NetworkManagerProcessIncomingData
 This function uses a non-reentrant model


 *************** function _IsNetworkDevice *****************
 Defined at:
		line 47 in file "../DeviceManager.c"
 Parameters:    Size  Location     Type
  address         8   33[BANK0 ] struct addr_t_def
  devType         1   41[BANK0 ] enum E145
 Auto vars:     Size  Location     Type
  oldest          8   44[BANK0 ] struct TickMS_t_def
  i               2   55[BANK0 ] unsigned int 
  empty           2   53[BANK0 ] unsigned int 
  res             1   52[BANK0 ] unsigned char 
 Return value:  Size  Location     Type
                  1    wreg      unsigned char 
 Registers used:
		wreg, fsr0l, fsr0h, fsr1l, fsr1h, fsr2l, fsr2h, status,2, status,0, tblptrl, tblptrh, tblptru, prodl, prodh, cstack
 Tracked objects:
		On entry : 
		On exit  : 
		Unchanged: 
 Data sizes:     COMRAM   BANK0   BANK1   BANK2   BANK3   BANK4   BANK5   BANK6   BANK7   BANK8   BANK9  BANK10  BANK11  BANK12  BANK13  BANK14
      Params:         0       9       0       0       0       0       0       0       0       0       0       0       0       0       0       0
      Locals:         0      13       0       0       0       0       0       0       0       0       0       0       0       0       0       0
      Temps:          0       2       0       0       0       0       0       0       0       0       0       0       0       0       0       0
      Totals:         0      24       0       0       0       0       0       0       0       0       0       0       0       0       0       0
Total ram usage:       24 bytes
 Hardware stack levels used:    1
 Hardware stack levels required when called:    7
 This function calls:
		_MSTickGet
		_NetworkAddressSizeGet
		_isInvalidAddress
		_isSameAddress
		_memcpy
		_memset
 This function is called by:
		_radioReceivedPacket
		_NetworkManagerProcessIncomingData
 This function uses a non-reentrant model


 *************** function _DeviceManagerGetDeviceData *****************
 Defined at:
		line 185 in file "../DeviceManager.c"
 Parameters:    Size  Location     Type
  address         8   32[BANK0 ] struct addr_t_def
  data            2   40[BANK0 ] PTR unsigned char 
		 -> NetworkManagerProcessIncomingData@buffer(64), 
  isSecure        2   42[BANK0 ] PTR unsigned char 
		 -> NetworkManagerProcessIncomingData@isSecurePacket(1), 
  isFormed        2   44[BANK0 ] PTR unsigned char 
		 -> NetworkManagerProcessIncomingData@isFormed(1), 
 Auto vars:     Size  Location     Type
  devBuffer       2    0        PTR struct devDataBuffer
		 -> NULL(0), 
  j               2    0        unsigned int 
  recordLen       2    0        unsigned int 
  index           2    0        unsigned int 
  size            2    0        unsigned int 
  i               2    0        unsigned int 
 Return value:  Size  Location     Type
                  2   32[BANK0 ] unsigned int 
 Registers used:
		wreg, status,2, status,0, cstack
 Tracked objects:
		On entry : 
		On exit  : 
		Unchanged: 
 Data sizes:     COMRAM   BANK0   BANK1   BANK2   BANK3   BANK4   BANK5   BANK6   BANK7   BANK8   BANK9  BANK10  BANK11  BANK12  BANK13  BANK14
      Params:         0      14       0       0       0       0       0       0       0       0       0       0       0       0       0       0
      Locals:         0      12       0       0       0       0       0       0       0       0       0       0       0       0       0       0
      Temps:          0       0       0       0       0       0       0       0       0       0       0       0       0       0       0       0
      Totals:         0      26       0       0       0       0       0       0       0       0       0       0       0       0       0       0
Total ram usage:       26 bytes
 Hardware stack levels used:    1
 Hardware stack levels required when called:    6
 This function calls:
		_NetworkAddressSizeGet
		_isSameAddress
		_memcpy
 This function is called by:
		_NetworkManagerProcessIncomingData
 This function uses a non-reentrant model


 *************** function _NetworkDiscoveredEvent *****************
 Defined at:
		line 385 in file "../src/Bridge.c"
 Parameters:    Size  Location     Type
  PANID           2    0[BANK0 ] unsigned int 
  rssi            2    2[BANK0 ] unsigned int 
 Auto vars:     Size  Location     Type
  i               2   10[BANK0 ] unsigned int 
  empty           2    8[BANK0 ] unsigned int 
 Return value:  Size  Location     Type
                  1    wreg      void 
 Registers used:
		wreg, fsr2l, fsr2h, status,2, status,0, prodl, prodh
 Tracked objects:
		On entry : 
		On exit  : 
		Unchanged: 
 Data sizes:     COMRAM   BANK0   BANK1   BANK2   BANK3   BANK4   BANK5   BANK6   BANK7   BANK8   BANK9  BANK10  BANK11  BANK12  BANK13  BANK14
      Params:         0       4       0       0       0       0       0       0       0       0       0       0       0       0       0       0
      Locals:         0       4       0       0       0       0       0       0       0       0       0       0       0       0       0       0
      Temps:          0       4       0       0       0       0       0       0       0       0       0       0       0       0       0       0
      Totals:         0      12       0       0       0       0       0       0       0       0       0       0       0       0       0       0
Total ram usage:       12 bytes
 Hardware stack levels used:    1
 Hardware stack levels required when called:    4
 This function calls:
		Nothing
 This function is called by:
		_radioReceivedPacket
 This function uses a non-reentrant model


 *************** function _LE_processReceivedMessage *****************
 Defined at:
		line 425 in file "../LinkEstimator.c"
 Parameters:    Size  Location     Type
  source          2   61[BANK0 ] PTR struct addr_t_def
		 -> radioReceivedPacket@source(8), 
  data            2   63[BANK0 ] PTR unsigned char 
		 -> RxBuffer.Payload(127), RxBuffer(256), 
  len             1   65[BANK0 ] unsigned char 
  rssi            1   66[BANK0 ] unsigned char 
 Auto vars:     Size  Location     Type
  ll_addr         8   73[BANK0 ] struct addr_t_def
  bhdr            2   71[BANK0 ] PTR struct net_routing_h
		 -> RxBuffer.Payload(127), RxBuffer(256), 
  hdr             2   69[BANK0 ] PTR struct linkest_heade
		 -> RxBuffer.lnk_header(2), RxBuffer(256), 
  nidx            1   81[BANK0 ] unsigned char 
  res             1    0        enum E179
  num_entries     1    0        unsigned char 
 Return value:  Size  Location     Type
                  1    wreg      enum E179
 Registers used:
		wreg, fsr0l, fsr0h, fsr1l, fsr1h, fsr2l, fsr2h, status,2, status,0, tblptrl, tblptrh, tblptru, prodl, prodh, cstack
 Tracked objects:
		On entry : 
		On exit  : 
		Unchanged: 
 Data sizes:     COMRAM   BANK0   BANK1   BANK2   BANK3   BANK4   BANK5   BANK6   BANK7   BANK8   BANK9  BANK10  BANK11  BANK12  BANK13  BANK14
      Params:         0       6       0       0       0       0       0       0       0       0       0       0       0       0       0       0
      Locals:         0      14       0       0       0       0       0       0       0       0       0       0       0       0       0       0
      Temps:          0       1       0       0       0       0       0       0       0       0       0       0       0       0       0       0
      Totals:         0      21       0       0       0       0       0       0       0       0       0       0       0       0       0       0
Total ram usage:       21 bytes
 Hardware stack levels used:    1
 Hardware stack levels required when called:    9
 This function calls:
		_NetworkAddressSizeGet
		_RouteManagerShouldInsert
		_RouterEvicted
		_le_findEmptyNeighborIdx
		_le_findIdx
		_le_findRandomNeighborIdx
		_le_findWorstNeighborIdx
		_le_initNeighborIdx
		_le_updateNeighborEntryIdx
		_memcpy
 This function is called by:
		_radioReceivedPacket
 This function uses a non-reentrant model


 *************** function _le_updateNeighborEntryIdx *****************
 Defined at:
		line 339 in file "../LinkEstimator.c"
 Parameters:    Size  Location     Type
  idx             1    wreg     unsigned char 
  seq             1   55[BANK0 ] unsigned char 
  dev             1   56[BANK0 ] enum E144
 Auto vars:     Size  Location     Type
  idx             1   60[BANK0 ] unsigned char 
  packetGap       1   59[BANK0 ] unsigned char 
 Return value:  Size  Location     Type
                  1    wreg      void 
 Registers used:
		wreg, fsr0l, fsr0h, fsr1l, fsr1h, fsr2l, fsr2h, status,2, status,0, prodl, prodh, cstack
 Tracked objects:
		On entry : 
		On exit  : 
		Unchanged: 
 Data sizes:     COMRAM   BANK0   BANK1   BANK2   BANK3   BANK4   BANK5   BANK6   BANK7   BANK8   BANK9  BANK10  BANK11  BANK12  BANK13  BANK14
      Params:         0       2       0       0       0       0       0       0       0       0       0       0       0       0       0       0
      Locals:         0       2       0       0       0       0       0       0       0       0       0       0       0       0       0       0
      Temps:          0       2       0       0       0       0       0       0       0       0       0       0       0       0       0       0
      Totals:         0       6       0       0       0       0       0       0       0       0       0       0       0       0       0       0
Total ram usage:        6 bytes
 Hardware stack levels used:    1
 Hardware stack levels required when called:    7
 This function calls:
		_le_initNeighborIdx
		_le_updateNeighborTableEst
 This function is called by:
		_LE_processReceivedMessage
 This function uses a non-reentrant model


 *************** function _le_updateNeighborTableEst *****************
 Defined at:
		line 297 in file "../LinkEstimator.c"
 Parameters:    Size  Location     Type
  n               8   32[BANK0 ] struct addr_t_def
 Auto vars:     Size  Location     Type
  ne              2   53[BANK0 ] PTR struct neighbor_tabl
		 -> neighbor_tbl(340), 
  newEst          2   50[BANK0 ] unsigned int 
  i               1   52[BANK0 ] unsigned char 
  totalPkt        1   49[BANK0 ] unsigned char 
  minPkt          1    0        unsigned char 
 Return value:  Size  Location     Type
                  1    wreg      void 
 Registers used:
		wreg, fsr0l, fsr0h, fsr1l, fsr1h, fsr2l, fsr2h, status,2, status,0, prodl, prodh, cstack
 Tracked objects:
		On entry : 
		On exit  : 
		Unchanged: 
 Data sizes:     COMRAM   BANK0   BANK1   BANK2   BANK3   BANK4   BANK5   BANK6   BANK7   BANK8   BANK9  BANK10  BANK11  BANK12  BANK13  BANK14
      Params:         0       8       0       0       0       0       0       0       0       0       0       0       0       0       0       0
      Locals:         0       6       0       0       0       0       0       0       0       0       0       0       0       0       0       0
      Temps:          0       9       0       0       0       0       0       0       0       0       0       0       0       0       0       0
      Totals:         0      23       0       0       0       0       0       0       0       0       0       0       0       0       0       0
Total ram usage:       23 bytes
 Hardware stack levels used:    1
 Hardware stack levels required when called:    6
 This function calls:
		___lldiv
		___lwdiv
		_isSameAddress
		_le_computeETX
		_le_updateETX
 This function is called by:
		_le_updateNeighborEntryIdx
 This function uses a non-reentrant model


 *************** function _le_updateETX *****************
 Defined at:
		line 292 in file "../LinkEstimator.c"
 Parameters:    Size  Location     Type
  ne              2   13[BANK0 ] PTR struct neighbor_tabl
		 -> neighbor_tbl(340), 
  newEst          2   15[BANK0 ] unsigned int 
 Auto vars:     Size  Location     Type
		None
 Return value:  Size  Location     Type
                  1    wreg      void 
 Registers used:
		wreg, fsr2l, fsr2h, status,2, status,0, cstack
 Tracked objects:
		On entry : 
		On exit  : 
		Unchanged: 
 Data sizes:     COMRAM   BANK0   BANK1   BANK2   BANK3   BANK4   BANK5   BANK6   BANK7   BANK8   BANK9  BANK10  BANK11  BANK12  BANK13  BANK14
      Params:         0       4       0       0       0       0       0       0       0       0       0       0       0       0       0       0
      Locals:         0       0       0       0       0       0       0       0       0       0       0       0       0       0       0       0
      Temps:          0       4       0       0       0       0       0       0       0       0       0       0       0       0       0       0
      Totals:         0       8       0       0       0       0       0       0       0       0       0       0       0       0       0       0
Total ram usage:        8 bytes
 Hardware stack levels used:    1
 Hardware stack levels required when called:    5
 This function calls:
		___lwdiv
 This function is called by:
		_le_updateNeighborTableEst
 This function uses a non-reentrant model


 *************** function _le_computeETX *****************
 Defined at:
		line 278 in file "../LinkEstimator.c"
 Parameters:    Size  Location     Type
  q1              1    wreg     unsigned char 
 Auto vars:     Size  Location     Type
  q1              1   10[BANK0 ] unsigned char 
  q               2   11[BANK0 ] unsigned int 
 Return value:  Size  Location     Type
                  2    8[BANK0 ] unsigned int 
 Registers used:
		wreg, status,2, status,0, cstack
 Tracked objects:
		On entry : 
		On exit  : 
		Unchanged: 
 Data sizes:     COMRAM   BANK0   BANK1   BANK2   BANK3   BANK4   BANK5   BANK6   BANK7   BANK8   BANK9  BANK10  BANK11  BANK12  BANK13  BANK14
      Params:         0       2       0       0       0       0       0       0       0       0       0       0       0       0       0       0
      Locals:         0       3       0       0       0       0       0       0       0       0       0       0       0       0       0       0
      Temps:          0       0       0       0       0       0       0       0       0       0       0       0       0       0       0       0
      Totals:         0       5       0       0       0       0       0       0       0       0       0       0       0       0       0       0
Total ram usage:        5 bytes
 Hardware stack levels used:    1
 Hardware stack levels required when called:    5
 This function calls:
		___awdiv
 This function is called by:
		_le_updateNeighborTableEst
 This function uses a non-reentrant model


 *************** function ___awdiv *****************
 Defined at:
		line 8 in file "C:\Program Files (x86)\Microchip\xc8\v1.38\sources\common\awdiv.c"
 Parameters:    Size  Location     Type
  dividend        2    0[BANK0 ] int 
  divisor         2    2[BANK0 ] int 
 Auto vars:     Size  Location     Type
  quotient        2    6[BANK0 ] int 
  sign            1    5[BANK0 ] unsigned char 
  counter         1    4[BANK0 ] unsigned char 
 Return value:  Size  Location     Type
                  2    0[BANK0 ] int 
 Registers used:
		wreg, status,2, status,0
 Tracked objects:
		On entry : 
		On exit  : 
		Unchanged: 
 Data sizes:     COMRAM   BANK0   BANK1   BANK2   BANK3   BANK4   BANK5   BANK6   BANK7   BANK8   BANK9  BANK10  BANK11  BANK12  BANK13  BANK14
      Params:         0       4       0       0       0       0       0       0       0       0       0       0       0       0       0       0
      Locals:         0       4       0       0       0       0       0       0       0       0       0       0       0       0       0       0
      Temps:          0       0       0       0       0       0       0       0       0       0       0       0       0       0       0       0
      Totals:         0       8       0       0       0       0       0       0       0       0       0       0       0       0       0       0
Total ram usage:        8 bytes
 Hardware stack levels used:    1
 Hardware stack levels required when called:    4
 This function calls:
		Nothing
 This function is called by:
		_le_computeETX
 This function uses a non-reentrant model


 *************** function ___lldiv *****************
 Defined at:
		line 8 in file "C:\Program Files (x86)\Microchip\xc8\v1.38\sources\common\lldiv.c"
 Parameters:    Size  Location     Type
  dividend        4    0[BANK0 ] unsigned long 
  divisor         4    4[BANK0 ] unsigned long 
 Auto vars:     Size  Location     Type
  quotient        4    8[BANK0 ] unsigned long 
  counter         1   12[BANK0 ] unsigned char 
 Return value:  Size  Location     Type
                  4    0[BANK0 ] unsigned long 
 Registers used:
		wreg, status,2, status,0
 Tracked objects:
		On entry : 
		On exit  : 
		Unchanged: 
 Data sizes:     COMRAM   BANK0   BANK1   BANK2   BANK3   BANK4   BANK5   BANK6   BANK7   BANK8   BANK9  BANK10  BANK11  BANK12  BANK13  BANK14
      Params:         0       8       0       0       0       0       0       0       0       0       0       0       0       0       0       0
      Locals:         0       5       0       0       0       0       0       0       0       0       0       0       0       0       0       0
      Temps:          0       0       0       0       0       0       0       0       0       0       0       0       0       0       0       0
      Totals:         0      13       0       0       0       0       0       0       0       0       0       0       0       0       0       0
Total ram usage:       13 bytes
 Hardware stack levels used:    1
 Hardware stack levels required when called:    4
 This function calls:
		Nothing
 This function is called by:
		_le_updateNeighborTableEst
 This function uses a non-reentrant model


 *************** function _le_initNeighborIdx *****************
 Defined at:
		line 160 in file "../LinkEstimator.c"
 Parameters:    Size  Location     Type
  i               1    wreg     unsigned char 
  ll_addr         8    0[BANK0 ] struct addr_t_def
 Auto vars:     Size  Location     Type
  i               1    8[BANK0 ] unsigned char 
  ne              2    9[BANK0 ] PTR struct neighbor_tabl
		 -> neighbor_tbl(340), 
 Return value:  Size  Location     Type
                  1    wreg      void 
 Registers used:
		wreg, fsr1l, fsr1h, fsr2l, fsr2h, status,2, status,0, prodl, prodh
 Tracked objects:
		On entry : 
		On exit  : 
		Unchanged: 
 Data sizes:     COMRAM   BANK0   BANK1   BANK2   BANK3   BANK4   BANK5   BANK6   BANK7   BANK8   BANK9  BANK10  BANK11  BANK12  BANK13  BANK14
      Params:         0       8       0       0       0       0       0       0       0       0       0       0       0       0       0       0
      Locals:         0       3       0       0       0       0       0       0       0       0       0       0       0       0       0       0
      Temps:          0       0       0       0       0       0       0       0       0       0       0       0       0       0       0       0
      Totals:         0      11       0       0       0       0       0       0       0       0       0       0       0       0       0       0
Total ram usage:       11 bytes
 Hardware stack levels used:    1
 Hardware stack levels required when called:    4
 This function calls:
		Nothing
 This function is called by:
		_LE_InsertNeighbor
		_le_updateNeighborEntryIdx
		_LE_processReceivedMessage
 This function uses a non-reentrant model


 *************** function _le_findWorstNeighborIdx *****************
 Defined at:
		line 173 in file "../LinkEstimator.c"
 Parameters:    Size  Location     Type
  thresholdETX    1    wreg     unsigned char 
 Auto vars:     Size  Location     Type
  thresholdETX    1   36[BANK0 ] unsigned char 
  i               2   45[BANK0 ] unsigned int 
  worstETX        2   43[BANK0 ] unsigned int 
  thisETX         2   41[BANK0 ] unsigned int 
  res             2   39[BANK0 ] unsigned int 
  worstNeighbo    2   37[BANK0 ] unsigned int 
 Return value:  Size  Location     Type
                  2   32[BANK0 ] unsigned int 
 Registers used:
		wreg, fsr0l, fsr0h, fsr1l, fsr1h, fsr2l, fsr2h, status,2, status,0, prodl, prodh, cstack
 Tracked objects:
		On entry : 
		On exit  : 
		Unchanged: 
 Data sizes:     COMRAM   BANK0   BANK1   BANK2   BANK3   BANK4   BANK5   BANK6   BANK7   BANK8   BANK9  BANK10  BANK11  BANK12  BANK13  BANK14
      Params:         0       2       0       0       0       0       0       0       0       0       0       0       0       0       0       0
      Locals:         0      11       0       0       0       0       0       0       0       0       0       0       0       0       0       0
      Temps:          0       2       0       0       0       0       0       0       0       0       0       0       0       0       0       0
      Totals:         0      15       0       0       0       0       0       0       0       0       0       0       0       0       0       0
Total ram usage:       15 bytes
 Hardware stack levels used:    1
 Hardware stack levels required when called:    6
 This function calls:
		_NetworkGetParentAddress
		_isSameAddress
 This function is called by:
		_LE_InsertNeighbor
		_LE_processReceivedMessage
 This function uses a non-reentrant model


 *************** function _le_findRandomNeighborIdx *****************
 Defined at:
		line 373 in file "../LinkEstimator.c"
 Parameters:    Size  Location     Type
		None
 Auto vars:     Size  Location     Type
  i               2   40[BANK0 ] unsigned int 
  res             2   37[BANK0 ] unsigned int 
  num_eligible    1   39[BANK0 ] unsigned char 
  cnt             1   36[BANK0 ] unsigned char 
 Return value:  Size  Location     Type
                  2   32[BANK0 ] unsigned int 
 Registers used:
		wreg, fsr0l, fsr0h, fsr1l, fsr1h, fsr2l, fsr2h, status,2, status,0, prodl, prodh, cstack
 Tracked objects:
		On entry : 
		On exit  : 
		Unchanged: 
 Data sizes:     COMRAM   BANK0   BANK1   BANK2   BANK3   BANK4   BANK5   BANK6   BANK7   BANK8   BANK9  BANK10  BANK11  BANK12  BANK13  BANK14
      Params:         0       2       0       0       0       0       0       0       0       0       0       0       0       0       0       0
      Locals:         0       6       0       0       0       0       0       0       0       0       0       0       0       0       0       0
      Temps:          0       2       0       0       0       0       0       0       0       0       0       0       0       0       0       0
      Totals:         0      10       0       0       0       0       0       0       0       0       0       0       0       0       0       0
Total ram usage:       10 bytes
 Hardware stack levels used:    1
 Hardware stack levels required when called:    6
 This function calls:
		_NetworkGetParentAddress
		___lwmod
		_isSameAddress
		_krnd
 This function is called by:
		_LE_processReceivedMessage
 This function uses a non-reentrant model


 *************** function _le_findEmptyNeighborIdx *****************
 Defined at:
		line 222 in file "../LinkEstimator.c"
 Parameters:    Size  Location     Type
		None
 Auto vars:     Size  Location     Type
  i               2    6[BANK0 ] unsigned int 
  res             2    4[BANK0 ] unsigned int 
 Return value:  Size  Location     Type
                  2    0[BANK0 ] unsigned int 
 Registers used:
		wreg, fsr2l, fsr2h, status,2, status,0, prodl, prodh
 Tracked objects:
		On entry : 
		On exit  : 
		Unchanged: 
 Data sizes:     COMRAM   BANK0   BANK1   BANK2   BANK3   BANK4   BANK5   BANK6   BANK7   BANK8   BANK9  BANK10  BANK11  BANK12  BANK13  BANK14
      Params:         0       2       0       0       0       0       0       0       0       0       0       0       0       0       0       0
      Locals:         0       4       0       0       0       0       0       0       0       0       0       0       0       0       0       0
      Temps:          0       2       0       0       0       0       0       0       0       0       0       0       0       0       0       0
      Totals:         0       8       0       0       0       0       0       0       0       0       0       0       0       0       0       0
Total ram usage:        8 bytes
 Hardware stack levels used:    1
 Hardware stack levels required when called:    4
 This function calls:
		Nothing
 This function is called by:
		_LE_InsertNeighbor
		_LE_processReceivedMessage
 This function uses a non-reentrant model


 *************** function _RouteManagerShouldInsert *****************
 Defined at:
		line 371 in file "../RouteManager.c"
 Parameters:    Size  Location     Type
  hdr             2   33[BANK0 ] PTR struct net_routing_h
		 -> RxBuffer.Payload(127), RxBuffer(256), 
 Auto vars:     Size  Location     Type
  rcvBeacon       2   46[BANK0 ] PTR struct net_routing_h
		 -> RxBuffer.Payload(127), RxBuffer(256), 
  i               2   43[BANK0 ] int 
  entry           2   41[BANK0 ] PTR struct routing_table
		 -> routingTable(210), 
  neighEtx        2   39[BANK0 ] unsigned int 
  pathEtx         2   37[BANK0 ] unsigned int 
  found           1   45[BANK0 ] unsigned char 
 Return value:  Size  Location     Type
                  1    wreg      unsigned char 
 Registers used:
		wreg, fsr0l, fsr0h, fsr1l, fsr1h, fsr2l, fsr2h, status,2, status,0, tblptrl, tblptrh, tblptru, prodl, prodh, cstack
 Tracked objects:
		On entry : 
		On exit  : 
		Unchanged: 
 Data sizes:     COMRAM   BANK0   BANK1   BANK2   BANK3   BANK4   BANK5   BANK6   BANK7   BANK8   BANK9  BANK10  BANK11  BANK12  BANK13  BANK14
      Params:         0       2       0       0       0       0       0       0       0       0       0       0       0       0       0       0
      Locals:         0      11       0       0       0       0       0       0       0       0       0       0       0       0       0       0
      Temps:          0       2       0       0       0       0       0       0       0       0       0       0       0       0       0       0
      Totals:         0      15       0       0       0       0       0       0       0       0       0       0       0       0       0       0
Total ram usage:       15 bytes
 Hardware stack levels used:    1
 Hardware stack levels required when called:    7
 This function calls:
		_NetworkGetParentAddress
		_isInvalidAddress
		_isSameAddress
 This function is called by:
		_LE_processReceivedMessage
 This function uses a non-reentrant model


 *************** function _DeviceManagerGetDeviceType *****************
 Defined at:
		line 106 in file "../DeviceManager.c"
 Parameters:    Size  Location     Type
  address         8   32[BANK0 ] struct addr_t_def
 Auto vars:     Size  Location     Type
  i               2   43[BANK0 ] unsigned int 
  dev             1   42[BANK0 ] enum E145
 Return value:  Size  Location     Type
                  1    wreg      enum E144
 Registers used:
		wreg, fsr0l, fsr0h, fsr1l, fsr1h, fsr2l, fsr2h, status,2, status,0, prodl, prodh, cstack
 Tracked objects:
		On entry : 
		On exit  : 
		Unchanged: 
 Data sizes:     COMRAM   BANK0   BANK1   BANK2   BANK3   BANK4   BANK5   BANK6   BANK7   BANK8   BANK9  BANK10  BANK11  BANK12  BANK13  BANK14
      Params:         0       8       0       0       0       0       0       0       0       0       0       0       0       0       0       0
      Locals:         0       3       0       0       0       0       0       0       0       0       0       0       0       0       0       0
      Temps:          0       2       0       0       0       0       0       0       0       0       0       0       0       0       0       0
      Totals:         0      13       0       0       0       0       0       0       0       0       0       0       0       0       0       0
Total ram usage:       13 bytes
 Hardware stack levels used:    1
 Hardware stack levels required when called:    6
 This function calls:
		_isSameAddress
 This function is called by:
		_radioReceivedPacket
		_NetworkUnicastData
 This function uses a non-reentrant model


 *************** function _DeviceManagerBufferDeviceData *****************
 Defined at:
		line 120 in file "../DeviceManager.c"
 Parameters:    Size  Location     Type
  address         8   12[BANK0 ] struct addr_t_def
  data            2   20[BANK0 ] PTR unsigned char 
		 -> RxBuffer.Payload(127), RxBuffer(256), TxBuffer(64), 
  size            2   22[BANK0 ] unsigned int 
  isSecure        1   24[BANK0 ] unsigned char 
  isFormed        1   25[BANK0 ] unsigned char 
 Auto vars:     Size  Location     Type
  devBuffer       2    0        PTR struct devDataBuffer
		 -> NULL(0), 
  i               2    0        unsigned int 
  empty           2   31[BANK0 ] unsigned int 
  recordLen       2    0        unsigned int 
  index           2    0        unsigned int 
  res             1    0        unsigned char 
 Return value:  Size  Location     Type
                  1    wreg      unsigned char 
 Registers used:
		wreg, status,2, status,0, cstack
 Tracked objects:
		On entry : 
		On exit  : 
		Unchanged: 
 Data sizes:     COMRAM   BANK0   BANK1   BANK2   BANK3   BANK4   BANK5   BANK6   BANK7   BANK8   BANK9  BANK10  BANK11  BANK12  BANK13  BANK14
      Params:         0      14       0       0       0       0       0       0       0       0       0       0       0       0       0       0
      Locals:         0      11       0       0       0       0       0       0       0       0       0       0       0       0       0       0
      Temps:          0       0       0       0       0       0       0       0       0       0       0       0       0       0       0       0
      Totals:         0      25       0       0       0       0       0       0       0       0       0       0       0       0       0       0
Total ram usage:       25 bytes
 Hardware stack levels used:    1
 Hardware stack levels required when called:    5
 This function calls:
		_NetworkAddressSizeGet
		_memcpy
 This function is called by:
		_radioReceivedPacket
		_NetworkUnicastData
 This function uses a non-reentrant model


 *************** function _BlinkRedLED *****************
 Defined at:
		line 584 in file "../src/system_config/miwikit_pic18f46j50_24j40/system.c"
 Parameters:    Size  Location     Type
		None
 Auto vars:     Size  Location     Type
		None
 Return value:  Size  Location     Type
                  1    wreg      void 
 Registers used:
		wreg, fsr2l, fsr2h, status,2, status,0, cstack
 Tracked objects:
		On entry : 
		On exit  : 
		Unchanged: 
 Data sizes:     COMRAM   BANK0   BANK1   BANK2   BANK3   BANK4   BANK5   BANK6   BANK7   BANK8   BANK9  BANK10  BANK11  BANK12  BANK13  BANK14
      Params:         0       0       0       0       0       0       0       0       0       0       0       0       0       0       0       0
      Locals:         0       0       0       0       0       0       0       0       0       0       0       0       0       0       0       0
      Temps:          0       0       0       0       0       0       0       0       0       0       0       0       0       0       0       0
      Totals:         0       0       0       0       0       0       0       0       0       0       0       0       0       0       0       0
Total ram usage:        0 bytes
 Hardware stack levels used:    1
 Hardware stack levels required when called:    5
 This function calls:
		_LEDCommand
 This function is called by:
		_radioReceivedPacket
 This function uses a non-reentrant model


 *************** function _LEDCommand *****************
 Defined at:
		line 576 in file "../src/system_config/miwikit_pic18f46j50_24j40/system.c"
 Parameters:    Size  Location     Type
  led             1    wreg     enum E8051
  cmd             1    0[BANK0 ] enum E8057
 Auto vars:     Size  Location     Type
  led             1    2[BANK0 ] enum E8051
 Return value:  Size  Location     Type
                  1    wreg      void 
 Registers used:
		wreg, fsr2l, fsr2h, status,2, status,0
 Tracked objects:
		On entry : 
		On exit  : 
		Unchanged: 
 Data sizes:     COMRAM   BANK0   BANK1   BANK2   BANK3   BANK4   BANK5   BANK6   BANK7   BANK8   BANK9  BANK10  BANK11  BANK12  BANK13  BANK14
      Params:         0       1       0       0       0       0       0       0       0       0       0       0       0       0       0       0
      Locals:         0       1       0       0       0       0       0       0       0       0       0       0       0       0       0       0
      Temps:          0       1       0       0       0       0       0       0       0       0       0       0       0       0       0       0
      Totals:         0       3       0       0       0       0       0       0       0       0       0       0       0       0       0       0
Total ram usage:        3 bytes
 Hardware stack levels used:    1
 Hardware stack levels required when called:    4
 This function calls:
		Nothing
 This function is called by:
		_BlinkRedLED
		_main
 This function uses a non-reentrant model


 *************** function _TimeTickISR *****************
 Defined at:
		line 10 in file "../TimeTick.c"
 Parameters:    Size  Location     Type
		None
 Auto vars:     Size  Location     Type
		None
 Return value:  Size  Location     Type
                  1    wreg      void 
 Registers used:
		wreg, status,2, status,0
 Tracked objects:
		On entry : 
		On exit  : 
		Unchanged: 
 Data sizes:     COMRAM   BANK0   BANK1   BANK2   BANK3   BANK4   BANK5   BANK6   BANK7   BANK8   BANK9  BANK10  BANK11  BANK12  BANK13  BANK14
      Params:         0       0       0       0       0       0       0       0       0       0       0       0       0       0       0       0
      Locals:         0       0       0       0       0       0       0       0       0       0       0       0       0       0       0       0
      Temps:          0       0       0       0       0       0       0       0       0       0       0       0       0       0       0       0
      Totals:         0       0       0       0       0       0       0       0       0       0       0       0       0       0       0       0
Total ram usage:        0 bytes
 Hardware stack levels used:    1
 Hardware stack levels required when called:    4
 This function calls:
		Nothing
 This function is called by:
		_MiApp_MessageAvailable
 This function uses a non-reentrant model


 *************** function _NetworkManagerTask *****************
 Defined at:
		line 53 in file "../NetworkManager.c"
 Parameters:    Size  Location     Type
		None
 Auto vars:     Size  Location     Type
  data           37    0[BANK1 ] unsigned char [37]
  sz              2   37[BANK1 ] unsigned int 
 Return value:  Size  Location     Type
                  1    wreg      void 
 Registers used:
		wreg, fsr0l, fsr0h, fsr1l, fsr1h, fsr2l, fsr2h, status,2, status,0, tblptrl, tblptrh, tblptru, prodl, prodh, cstack
 Tracked objects:
		On entry : 
		On exit  : 
		Unchanged: 
 Data sizes:     COMRAM   BANK0   BANK1   BANK2   BANK3   BANK4   BANK5   BANK6   BANK7   BANK8   BANK9  BANK10  BANK11  BANK12  BANK13  BANK14
      Params:         0       0       0       0       0       0       0       0       0       0       0       0       0       0       0       0
      Locals:         0       0      39       0       0       0       0       0       0       0       0       0       0       0       0       0
      Temps:          0       4       0       0       0       0       0       0       0       0       0       0       0       0       0       0
      Totals:         0       4      39       0       0       0       0       0       0       0       0       0       0       0       0       0
Total ram usage:       43 bytes
 Hardware stack levels used:    1
 Hardware stack levels required when called:   13
 This function calls:
		_BeaconManagerTask
		_BroadcastManagerTask
		_CoordinatorGenericAddress
		_MSTickGet
		_MSTickGetDiffNow
		_MiApp_IsNetworkBusy
		_NetworkGetDeviceType
		_NetworkGetPANID
		_NetworkGetParentAddress
		_NetworkPrepareSendPacket
		_RMRoutingTableCount
		_RouteManagerPerformUpdate
		_RouteManagerTask
		_RouterEvicted
		_TransportManagerTask
		_isInvalidAddress
		_isNetworkSecurityEnabled
		_krnd
		_radioUnicast
 This function is called by:
		_MiApp_MessageAvailable
 This function uses a non-reentrant model


 *************** function _TransportManagerTask *****************
 Defined at:
		line 59 in file "../TransportManager.c"
 Parameters:    Size  Location     Type
		None
 Auto vars:     Size  Location     Type
  databuff       64   82[BANK0 ] unsigned char [64]
  i               2  148[BANK0 ] unsigned int 
  sz              2  146[BANK0 ] unsigned int 
 Return value:  Size  Location     Type
                  1    wreg      void 
 Registers used:
		wreg, fsr0l, fsr0h, fsr1l, fsr1h, fsr2l, fsr2h, status,2, status,0, tblptrl, tblptrh, tblptru, prodl, prodh, cstack
 Tracked objects:
		On entry : 
		On exit  : 
		Unchanged: 
 Data sizes:     COMRAM   BANK0   BANK1   BANK2   BANK3   BANK4   BANK5   BANK6   BANK7   BANK8   BANK9  BANK10  BANK11  BANK12  BANK13  BANK14
      Params:         0       0       0       0       0       0       0       0       0       0       0       0       0       0       0       0
      Locals:         0      68       0       0       0       0       0       0       0       0       0       0       0       0       0       0
      Temps:          0       4       0       0       0       0       0       0       0       0       0       0       0       0       0       0
      Totals:         0      72       0       0       0       0       0       0       0       0       0       0       0       0       0       0
Total ram usage:       72 bytes
 Hardware stack levels used:    1
 Hardware stack levels required when called:   11
 This function calls:
		_CoordinatorGenericAddress
		_MSTickGet
		_MSTickGetDiffNow
		_NetworkGetPANID
		_NetworkGetParentAddress
		_NetworkHasRoute
		_NetworkPrepareSendPacket
		_RouterEvicted
		_memcpy
		_radioUnicast
 This function is called by:
		_NetworkManagerTask
 This function uses a non-reentrant model


 *************** function _RouteManagerTask *****************
 Defined at:
		line 36 in file "../RouteManager.c"
 Parameters:    Size  Location     Type
		None
 Auto vars:     Size  Location     Type
		None
 Return value:  Size  Location     Type
                  1    wreg      void 
 Registers used:
		wreg, fsr0l, fsr0h, fsr1l, fsr1h, fsr2l, fsr2h, status,2, status,0, tblptrl, tblptrh, tblptru, prodl, prodh, cstack
 Tracked objects:
		On entry : 
		On exit  : 
		Unchanged: 
 Data sizes:     COMRAM   BANK0   BANK1   BANK2   BANK3   BANK4   BANK5   BANK6   BANK7   BANK8   BANK9  BANK10  BANK11  BANK12  BANK13  BANK14
      Params:         0       0       0       0       0       0       0       0       0       0       0       0       0       0       0       0
      Locals:         0       0       0       0       0       0       0       0       0       0       0       0       0       0       0       0
      Temps:          0       0       0       0       0       0       0       0       0       0       0       0       0       0       0       0
      Totals:         0       0       0       0       0       0       0       0       0       0       0       0       0       0       0       0
Total ram usage:        0 bytes
 Hardware stack levels used:    1
 Hardware stack levels required when called:   11
 This function calls:
		_MSTickGet
		_MSTickGetDiffNow
		_RouteManagerPerformUpdate
 This function is called by:
		_NetworkManagerTask
 This function uses a non-reentrant model


 *************** function _RouteManagerPerformUpdate *****************
 Defined at:
		line 46 in file "../RouteManager.c"
 Parameters:    Size  Location     Type
		None
 Auto vars:     Size  Location     Type
  r               2   73[BANK0 ] PTR struct route_info_t_
		 -> routeInfo(13), 
  entry           2   71[BANK0 ] PTR struct routing_table
		 -> routingTable(210), 
  minEtx          2   69[BANK0 ] unsigned int 
  best            2   67[BANK0 ] PTR struct routing_table
		 -> routingTable(210), NULL(0), 
  currentEtx      2   65[BANK0 ] unsigned int 
  pathEtx         2   63[BANK0 ] unsigned int 
  i               2   61[BANK0 ] unsigned int 
  linkEtx         2   59[BANK0 ] unsigned int 
 Return value:  Size  Location     Type
                  1    wreg      void 
 Registers used:
		wreg, fsr0l, fsr0h, fsr1l, fsr1h, fsr2l, fsr2h, status,2, status,0, tblptrl, tblptrh, tblptru, prodl, prodh, cstack
 Tracked objects:
		On entry : 
		On exit  : 
		Unchanged: 
 Data sizes:     COMRAM   BANK0   BANK1   BANK2   BANK3   BANK4   BANK5   BANK6   BANK7   BANK8   BANK9  BANK10  BANK11  BANK12  BANK13  BANK14
      Params:         0       0       0       0       0       0       0       0       0       0       0       0       0       0       0       0
      Locals:         0      16       0       0       0       0       0       0       0       0       0       0       0       0       0       0
      Temps:          0       2       0       0       0       0       0       0       0       0       0       0       0       0       0       0
      Totals:         0      18       0       0       0       0       0       0       0       0       0       0       0       0       0       0
Total ram usage:       18 bytes
 Hardware stack levels used:    1
 Hardware stack levels required when called:   10
 This function calls:
		_BeaconManagerTrigger
		_LELinkQualityGet
		_LE_ClearDLQ
		_LE_PinNeighbor
		_LE_UnpinNeighbor
		_NetworkGetDeviceType
		_NetworkGetMyRouteInfo
		_NetworkManagerGetMyAddress
		_TransportManagerNoRoute
		_TransportManagerRouteFound
		_isInvalidAddress
		_isSameAddress
		_passLinkEtxThreshold
 This function is called by:
		_RouteManagerTask
		_NetworkManagerTask
 This function uses a non-reentrant model


 *************** function _passLinkEtxThreshold *****************
 Defined at:
		line 190 in file "../RouteManager.c"
 Parameters:    Size  Location     Type
  etx             2    0[BANK0 ] unsigned int 
 Auto vars:     Size  Location     Type
		None
 Return value:  Size  Location     Type
                  1    wreg      unsigned char 
 Registers used:
		wreg, status,2, status,0
 Tracked objects:
		On entry : 
		On exit  : 
		Unchanged: 
 Data sizes:     COMRAM   BANK0   BANK1   BANK2   BANK3   BANK4   BANK5   BANK6   BANK7   BANK8   BANK9  BANK10  BANK11  BANK12  BANK13  BANK14
      Params:         0       2       0       0       0       0       0       0       0       0       0       0       0       0       0       0
      Locals:         0       0       0       0       0       0       0       0       0       0       0       0       0       0       0       0
      Temps:          0       0       0       0       0       0       0       0       0       0       0       0       0       0       0       0
      Totals:         0       2       0       0       0       0       0       0       0       0       0       0       0       0       0       0
Total ram usage:        2 bytes
 Hardware stack levels used:    1
 Hardware stack levels required when called:    4
 This function calls:
		Nothing
 This function is called by:
		_RouteManagerPerformUpdate
		_routingTableUpdateEntry
 This function uses a non-reentrant model


 *************** function _TransportManagerRouteFound *****************
 Defined at:
		line 278 in file "../TransportManager.c"
 Parameters:    Size  Location     Type
		None
 Auto vars:     Size  Location     Type
		None
 Return value:  Size  Location     Type
                  1    wreg      void 
 Registers used:
		None
 Tracked objects:
		On entry : 
		On exit  : 
		Unchanged: 
 Data sizes:     COMRAM   BANK0   BANK1   BANK2   BANK3   BANK4   BANK5   BANK6   BANK7   BANK8   BANK9  BANK10  BANK11  BANK12  BANK13  BANK14
      Params:         0       0       0       0       0       0       0       0       0       0       0       0       0       0       0       0
      Locals:         0       0       0       0       0       0       0       0       0       0       0       0       0       0       0       0
      Temps:          0       0       0       0       0       0       0       0       0       0       0       0       0       0       0       0
      Totals:         0       0       0       0       0       0       0       0       0       0       0       0       0       0       0       0
Total ram usage:        0 bytes
 Hardware stack levels used:    1
 Hardware stack levels required when called:    4
 This function calls:
		Nothing
 This function is called by:
		_RouteManagerPerformUpdate
 This function uses a non-reentrant model


 *************** function _TransportManagerNoRoute *****************
 Defined at:
		line 273 in file "../TransportManager.c"
 Parameters:    Size  Location     Type
		None
 Auto vars:     Size  Location     Type
		None
 Return value:  Size  Location     Type
                  1    wreg      void 
 Registers used:
		None
 Tracked objects:
		On entry : 
		On exit  : 
		Unchanged: 
 Data sizes:     COMRAM   BANK0   BANK1   BANK2   BANK3   BANK4   BANK5   BANK6   BANK7   BANK8   BANK9  BANK10  BANK11  BANK12  BANK13  BANK14
      Params:         0       0       0       0       0       0       0       0       0       0       0       0       0       0       0       0
      Locals:         0       0       0       0       0       0       0       0       0       0       0       0       0       0       0       0
      Temps:          0       0       0       0       0       0       0       0       0       0       0       0       0       0       0       0
      Totals:         0       0       0       0       0       0       0       0       0       0       0       0       0       0       0       0
Total ram usage:        0 bytes
 Hardware stack levels used:    1
 Hardware stack levels required when called:    4
 This function calls:
		Nothing
 This function is called by:
		_RouteManagerPerformUpdate
 This function uses a non-reentrant model


 *************** function _LE_UnpinNeighbor *****************
 Defined at:
		line 133 in file "../LinkEstimator.c"
 Parameters:    Size  Location     Type
  neighbor        8   42[BANK0 ] struct addr_t_def
 Auto vars:     Size  Location     Type
  nidx            2   53[BANK0 ] unsigned int 
  res             1    0        enum E179
 Return value:  Size  Location     Type
                  1    wreg      enum E180
 Registers used:
		wreg, fsr0l, fsr0h, fsr1l, fsr1h, fsr2l, fsr2h, status,2, status,0, prodl, prodh, cstack
 Tracked objects:
		On entry : 
		On exit  : 
		Unchanged: 
 Data sizes:     COMRAM   BANK0   BANK1   BANK2   BANK3   BANK4   BANK5   BANK6   BANK7   BANK8   BANK9  BANK10  BANK11  BANK12  BANK13  BANK14
      Params:         0       8       0       0       0       0       0       0       0       0       0       0       0       0       0       0
      Locals:         0       3       0       0       0       0       0       0       0       0       0       0       0       0       0       0
      Temps:          0       2       0       0       0       0       0       0       0       0       0       0       0       0       0       0
      Totals:         0      13       0       0       0       0       0       0       0       0       0       0       0       0       0       0
Total ram usage:       13 bytes
 Hardware stack levels used:    1
 Hardware stack levels required when called:    7
 This function calls:
		_le_findIdx
 This function is called by:
		_RouteManagerPerformUpdate
 This function uses a non-reentrant model


 *************** function _LE_PinNeighbor *****************
 Defined at:
		line 120 in file "../LinkEstimator.c"
 Parameters:    Size  Location     Type
  neighbor        8   42[BANK0 ] struct addr_t_def
 Auto vars:     Size  Location     Type
  nidx            2   53[BANK0 ] unsigned int 
  res             1    0        enum E179
 Return value:  Size  Location     Type
                  1    wreg      enum E180
 Registers used:
		wreg, fsr0l, fsr0h, fsr1l, fsr1h, fsr2l, fsr2h, status,2, status,0, prodl, prodh, cstack
 Tracked objects:
		On entry : 
		On exit  : 
		Unchanged: 
 Data sizes:     COMRAM   BANK0   BANK1   BANK2   BANK3   BANK4   BANK5   BANK6   BANK7   BANK8   BANK9  BANK10  BANK11  BANK12  BANK13  BANK14
      Params:         0       8       0       0       0       0       0       0       0       0       0       0       0       0       0       0
      Locals:         0       3       0       0       0       0       0       0       0       0       0       0       0       0       0       0
      Temps:          0       2       0       0       0       0       0       0       0       0       0       0       0       0       0       0
      Totals:         0      13       0       0       0       0       0       0       0       0       0       0       0       0       0       0
Total ram usage:       13 bytes
 Hardware stack levels used:    1
 Hardware stack levels required when called:    7
 This function calls:
		_le_findIdx
 This function is called by:
		_RouteManagerPerformUpdate
		_RouteManagerProcessReceive
 This function uses a non-reentrant model


 *************** function _LE_ClearDLQ *****************
 Defined at:
		line 145 in file "../LinkEstimator.c"
 Parameters:    Size  Location     Type
  neighbor        8   42[BANK0 ] struct addr_t_def
 Auto vars:     Size  Location     Type
  nidx            2   55[BANK0 ] unsigned int 
  ne              2   53[BANK0 ] PTR struct neighbor_tabl
		 -> neighbor_tbl(340), 
  res             1    0        enum E179
 Return value:  Size  Location     Type
                  1    wreg      enum E180
 Registers used:
		wreg, fsr0l, fsr0h, fsr1l, fsr1h, fsr2l, fsr2h, status,2, status,0, prodl, prodh, cstack
 Tracked objects:
		On entry : 
		On exit  : 
		Unchanged: 
 Data sizes:     COMRAM   BANK0   BANK1   BANK2   BANK3   BANK4   BANK5   BANK6   BANK7   BANK8   BANK9  BANK10  BANK11  BANK12  BANK13  BANK14
      Params:         0       8       0       0       0       0       0       0       0       0       0       0       0       0       0       0
      Locals:         0       5       0       0       0       0       0       0       0       0       0       0       0       0       0       0
      Temps:          0       2       0       0       0       0       0       0       0       0       0       0       0       0       0       0
      Totals:         0      15       0       0       0       0       0       0       0       0       0       0       0       0       0       0
Total ram usage:       15 bytes
 Hardware stack levels used:    1
 Hardware stack levels required when called:    7
 This function calls:
		_le_findIdx
 This function is called by:
		_RouteManagerPerformUpdate
 This function uses a non-reentrant model


 *************** function _BeaconManagerTrigger *****************
 Defined at:
		line 152 in file "../BeaconManager.c"
 Parameters:    Size  Location     Type
		None
 Auto vars:     Size  Location     Type
		None
 Return value:  Size  Location     Type
                  1    wreg      void 
 Registers used:
		wreg, fsr0l, fsr0h, fsr1l, fsr1h, fsr2l, fsr2h, status,2, status,0, cstack
 Tracked objects:
		On entry : 
		On exit  : 
		Unchanged: 
 Data sizes:     COMRAM   BANK0   BANK1   BANK2   BANK3   BANK4   BANK5   BANK6   BANK7   BANK8   BANK9  BANK10  BANK11  BANK12  BANK13  BANK14
      Params:         0       0       0       0       0       0       0       0       0       0       0       0       0       0       0       0
      Locals:         0       0       0       0       0       0       0       0       0       0       0       0       0       0       0       0
      Temps:          0       0       0       0       0       0       0       0       0       0       0       0       0       0       0       0
      Totals:         0       0       0       0       0       0       0       0       0       0       0       0       0       0       0       0
Total ram usage:        0 bytes
 Hardware stack levels used:    1
 Hardware stack levels required when called:    9
 This function calls:
		_netResetInterval
 This function is called by:
		_RouteManagerPerformUpdate
		_RouteManagerProcessReceive
		_NetworkManagerProcessIncomingData
 This function uses a non-reentrant model


 *************** function _RMRoutingTableCount *****************
 Defined at:
		line 408 in file "../RouteManager.c"
 Parameters:    Size  Location     Type
		None
 Auto vars:     Size  Location     Type
		None
 Return value:  Size  Location     Type
                  2    0[BANK0 ] unsigned int 
 Registers used:
		None
 Tracked objects:
		On entry : 
		On exit  : 
		Unchanged: 
 Data sizes:     COMRAM   BANK0   BANK1   BANK2   BANK3   BANK4   BANK5   BANK6   BANK7   BANK8   BANK9  BANK10  BANK11  BANK12  BANK13  BANK14
      Params:         0       2       0       0       0       0       0       0       0       0       0       0       0       0       0       0
      Locals:         0       0       0       0       0       0       0       0       0       0       0       0       0       0       0       0
      Temps:          0       0       0       0       0       0       0       0       0       0       0       0       0       0       0       0
      Totals:         0       2       0       0       0       0       0       0       0       0       0       0       0       0       0       0
Total ram usage:        2 bytes
 Hardware stack levels used:    1
 Hardware stack levels required when called:    4
 This function calls:
		Nothing
 This function is called by:
		_NetworkManagerTask
 This function uses a non-reentrant model


 *************** function _MiApp_IsNetworkBusy *****************
 Defined at:
		line 157 in file "../BeaconManager.c"
 Parameters:    Size  Location     Type
		None
 Auto vars:     Size  Location     Type
		None
 Return value:  Size  Location     Type
                  1    wreg      unsigned char 
 Registers used:
		wreg
 Tracked objects:
		On entry : 
		On exit  : 
		Unchanged: 
 Data sizes:     COMRAM   BANK0   BANK1   BANK2   BANK3   BANK4   BANK5   BANK6   BANK7   BANK8   BANK9  BANK10  BANK11  BANK12  BANK13  BANK14
      Params:         0       0       0       0       0       0       0       0       0       0       0       0       0       0       0       0
      Locals:         0       0       0       0       0       0       0       0       0       0       0       0       0       0       0       0
      Temps:          0       0       0       0       0       0       0       0       0       0       0       0       0       0       0       0
      Totals:         0       0       0       0       0       0       0       0       0       0       0       0       0       0       0       0
Total ram usage:        0 bytes
 Hardware stack levels used:    1
 Hardware stack levels required when called:    4
 This function calls:
		Nothing
 This function is called by:
		_NetworkManagerTask
 This function uses a non-reentrant model


 *************** function _BroadcastManagerTask *****************
 Defined at:
		line 29 in file "../BroadcastManager.c"
 Parameters:    Size  Location     Type
		None
 Auto vars:     Size  Location     Type
  i               2   82[BANK0 ] unsigned int 
  PANID           2   80[BANK0 ] unsigned int 
 Return value:  Size  Location     Type
                  1    wreg      void 
 Registers used:
		wreg, fsr0l, fsr0h, fsr1l, fsr1h, fsr2l, fsr2h, status,2, status,0, tblptrl, tblptrh, tblptru, prodl, prodh, cstack
 Tracked objects:
		On entry : 
		On exit  : 
		Unchanged: 
 Data sizes:     COMRAM   BANK0   BANK1   BANK2   BANK3   BANK4   BANK5   BANK6   BANK7   BANK8   BANK9  BANK10  BANK11  BANK12  BANK13  BANK14
      Params:         0       0       0       0       0       0       0       0       0       0       0       0       0       0       0       0
      Locals:         0       4       0       0       0       0       0       0       0       0       0       0       0       0       0       0
      Temps:          0      10       0       0       0       0       0       0       0       0       0       0       0       0       0       0
      Totals:         0      14       0       0       0       0       0       0       0       0       0       0       0       0       0       0
Total ram usage:       14 bytes
 Hardware stack levels used:    1
 Hardware stack levels required when called:   11
 This function calls:
		_MSTickGet
		_NetworkGetPANID
		_memset
		_radioBroadcast
 This function is called by:
		_NetworkManagerTask
 This function uses a non-reentrant model


 *************** function _BeaconManagerTask *****************
 Defined at:
		line 46 in file "../BeaconManager.c"
 Parameters:    Size  Location     Type
		None
 Auto vars:     Size  Location     Type
		None
 Return value:  Size  Location     Type
                  1    wreg      void 
 Registers used:
		wreg, fsr0l, fsr0h, fsr1l, fsr1h, fsr2l, fsr2h, status,2, status,0, tblptrl, tblptrh, tblptru, prodl, prodh, cstack
 Tracked objects:
		On entry : 
		On exit  : 
		Unchanged: 
 Data sizes:     COMRAM   BANK0   BANK1   BANK2   BANK3   BANK4   BANK5   BANK6   BANK7   BANK8   BANK9  BANK10  BANK11  BANK12  BANK13  BANK14
      Params:         0       0       0       0       0       0       0       0       0       0       0       0       0       0       0       0
      Locals:         0       0       0       0       0       0       0       0       0       0       0       0       0       0       0       0
      Temps:          0       0       0       0       0       0       0       0       0       0       0       0       0       0       0       0
      Totals:         0       0       0       0       0       0       0       0       0       0       0       0       0       0       0       0
Total ram usage:        0 bytes
 Hardware stack levels used:    1
 Hardware stack levels required when called:   12
 This function calls:
		_MSTickGet
		_MSTickGetDiffNow
		_netDecayInterval
		_networkSendBeacon
 This function is called by:
		_NetworkManagerTask
 This function uses a non-reentrant model


 *************** function _networkSendBeacon *****************
 Defined at:
		line 86 in file "../BeaconManager.c"
 Parameters:    Size  Location     Type
		None
 Auto vars:     Size  Location     Type
  parent          8    0        struct addr_t_def
  hdr             2   84[BANK0 ] PTR struct net_routing_h
		 -> beaconMessageBuffer.data(64), beaconMessageBuffer(84), 
  r               2   82[BANK0 ] PTR struct route_info_t_
		 -> routeInfo(13), 
  bt              2   80[BANK0 ] unsigned int 
  adr             2   78[BANK0 ] PTR struct addr_t_def
		 -> MyAddress(8), 
  last            2   76[BANK0 ] PTR unsigned char 
		 -> beaconMessageBuffer.data(64), beaconMessageBuffer(84), 
 Return value:  Size  Location     Type
                  1    wreg      void 
 Registers used:
		wreg, fsr0l, fsr0h, fsr1l, fsr1h, fsr2l, fsr2h, status,2, status,0, tblptrl, tblptrh, tblptru, prodl, prodh, cstack
 Tracked objects:
		On entry : 
		On exit  : 
		Unchanged: 
 Data sizes:     COMRAM   BANK0   BANK1   BANK2   BANK3   BANK4   BANK5   BANK6   BANK7   BANK8   BANK9  BANK10  BANK11  BANK12  BANK13  BANK14
      Params:         0       0       0       0       0       0       0       0       0       0       0       0       0       0       0       0
      Locals:         0      10       0       0       0       0       0       0       0       0       0       0       0       0       0       0
      Temps:          0       6       0       0       0       0       0       0       0       0       0       0       0       0       0       0
      Totals:         0      16       0       0       0       0       0       0       0       0       0       0       0       0       0       0
Total ram usage:       16 bytes
 Hardware stack levels used:    1
 Hardware stack levels required when called:   11
 This function calls:
		_LEAppendNeighborInfo
		_LELinkQualityGet
		_NetworkAddressSizeGet
		_NetworkGetDeviceType
		_NetworkGetMyRouteInfo
		_NetworkGetPANID
		_NetworkHasRoute
		_NetworkManagerGetMyAddress
		_isInvalidAddress
		_isNetworkSecurityEnabled
		_memcpy
		_memset
		_radioBroadcast
 This function is called by:
		_BeaconManagerTask
 This function uses a non-reentrant model


 *************** function _radioBroadcast *****************
 Defined at:
		line 110 in file "../src/Bridge.c"
 Parameters:    Size  Location     Type
  data            2   63[BANK0 ] PTR unsigned char 
		 -> RbcQ(444), beaconMessageBuffer(84), 
  datasize        1   65[BANK0 ] unsigned char 
  PANID           2   66[BANK0 ] unsigned int 
  isSecure        1   68[BANK0 ] unsigned char 
 Auto vars:     Size  Location     Type
  i               1   69[BANK0 ] unsigned char 
 Return value:  Size  Location     Type
                  1    wreg      unsigned char 
 Registers used:
		wreg, fsr0l, fsr0h, fsr1l, fsr1h, fsr2l, fsr2h, status,2, status,0, tblptrl, tblptrh, tblptru, prodl, prodh, cstack
 Tracked objects:
		On entry : 
		On exit  : 
		Unchanged: 
 Data sizes:     COMRAM   BANK0   BANK1   BANK2   BANK3   BANK4   BANK5   BANK6   BANK7   BANK8   BANK9  BANK10  BANK11  BANK12  BANK13  BANK14
      Params:         0       6       0       0       0       0       0       0       0       0       0       0       0       0       0       0
      Locals:         0       1       0       0       0       0       0       0       0       0       0       0       0       0       0       0
      Temps:          0       0       0       0       0       0       0       0       0       0       0       0       0       0       0       0
      Totals:         0       7       0       0       0       0       0       0       0       0       0       0       0       0       0       0
Total ram usage:        7 bytes
 Hardware stack levels used:    1
 Hardware stack levels required when called:   10
 This function calls:
		_SendPacket
		_memset
 This function is called by:
		_networkSendBeacon
		_BroadcastManagerTask
 This function uses a non-reentrant model


 *************** function _LELinkQualityGet *****************
 Defined at:
		line 70 in file "../LinkEstimator.c"
 Parameters:    Size  Location     Type
  address         8   42[BANK0 ] struct addr_t_def
  offset          2   50[BANK0 ] unsigned int 
 Auto vars:     Size  Location     Type
  res             2   54[BANK0 ] unsigned int 
  idx             1   56[BANK0 ] unsigned char 
 Return value:  Size  Location     Type
                  2   42[BANK0 ] unsigned int 
 Registers used:
		wreg, fsr0l, fsr0h, fsr1l, fsr1h, fsr2l, fsr2h, status,2, status,0, prodl, prodh, cstack
 Tracked objects:
		On entry : 
		On exit  : 
		Unchanged: 
 Data sizes:     COMRAM   BANK0   BANK1   BANK2   BANK3   BANK4   BANK5   BANK6   BANK7   BANK8   BANK9  BANK10  BANK11  BANK12  BANK13  BANK14
      Params:         0      10       0       0       0       0       0       0       0       0       0       0       0       0       0       0
      Locals:         0       3       0       0       0       0       0       0       0       0       0       0       0       0       0       0
      Temps:          0       2       0       0       0       0       0       0       0       0       0       0       0       0       0       0
      Totals:         0      15       0       0       0       0       0       0       0       0       0       0       0       0       0       0
Total ram usage:       15 bytes
 Hardware stack levels used:    1
 Hardware stack levels required when called:    7
 This function calls:
		_le_findIdx
 This function is called by:
		_RouteManagerPerformUpdate
		_routingTableUpdateEntry
		_networkSendBeacon
 This function uses a non-reentrant model


 *************** function _le_findIdx *****************
 Defined at:
		line 52 in file "../LinkEstimator.c"
 Parameters:    Size  Location     Type
  ll_addr         8   32[BANK0 ] struct addr_t_def
 Auto vars:     Size  Location     Type
  i               1   41[BANK0 ] unsigned char 
  res             1   40[BANK0 ] unsigned char 
 Return value:  Size  Location     Type
                  1    wreg      unsigned char 
 Registers used:
		wreg, fsr0l, fsr0h, fsr1l, fsr1h, fsr2l, fsr2h, status,2, status,0, prodl, prodh, cstack
 Tracked objects:
		On entry : 
		On exit  : 
		Unchanged: 
 Data sizes:     COMRAM   BANK0   BANK1   BANK2   BANK3   BANK4   BANK5   BANK6   BANK7   BANK8   BANK9  BANK10  BANK11  BANK12  BANK13  BANK14
      Params:         0       8       0       0       0       0       0       0       0       0       0       0       0       0       0       0
      Locals:         0       2       0       0       0       0       0       0       0       0       0       0       0       0       0       0
      Temps:          0       0       0       0       0       0       0       0       0       0       0       0       0       0       0       0
      Totals:         0      10       0       0       0       0       0       0       0       0       0       0       0       0       0       0
Total ram usage:       10 bytes
 Hardware stack levels used:    1
 Hardware stack levels required when called:    6
 This function calls:
		_isSameAddress
 This function is called by:
		_GetRouteAddressOfChild
		_LELinkQualityGet
		_LE_PinNeighbor
		_LE_UnpinNeighbor
		_LE_ClearDLQ
		_LE_InsertNeighbor
		_LE_processReceivedMessage
		_LE_RemoveNeighborDevice
 This function uses a non-reentrant model


 *************** function _LEAppendNeighborInfo *****************
 Defined at:
		line 89 in file "../LinkEstimator.c"
 Parameters:    Size  Location     Type
  data            2   17[BANK0 ] PTR unsigned char 
		 -> beaconMessageBuffer.data(64), beaconMessageBuffer(84), 
  size            2   19[BANK0 ] unsigned int 
 Auto vars:     Size  Location     Type
  k               2   33[BANK0 ] unsigned int 
  j               2   31[BANK0 ] unsigned int 
  i               2   29[BANK0 ] unsigned int 
  count           2   27[BANK0 ] unsigned int 
  newPrevSentI    2   25[BANK0 ] unsigned int 
  cnt             2   23[BANK0 ] unsigned int 
 Return value:  Size  Location     Type
                  2   17[BANK0 ] PTR unsigned char 
 Registers used:
		wreg, fsr1l, fsr1h, fsr2l, fsr2h, status,2, status,0, prodl, prodh, cstack
 Tracked objects:
		On entry : 
		On exit  : 
		Unchanged: 
 Data sizes:     COMRAM   BANK0   BANK1   BANK2   BANK3   BANK4   BANK5   BANK6   BANK7   BANK8   BANK9  BANK10  BANK11  BANK12  BANK13  BANK14
      Params:         0       4       0       0       0       0       0       0       0       0       0       0       0       0       0       0
      Locals:         0      12       0       0       0       0       0       0       0       0       0       0       0       0       0       0
      Temps:          0       2       0       0       0       0       0       0       0       0       0       0       0       0       0       0
      Totals:         0      18       0       0       0       0       0       0       0       0       0       0       0       0       0       0
Total ram usage:       18 bytes
 Hardware stack levels used:    1
 Hardware stack levels required when called:    5
 This function calls:
		_NetworkAddressSizeGet
		___lwdiv
		___lwmod
		_memcpy
 This function is called by:
		_networkSendBeacon
 This function uses a non-reentrant model


 *************** function ___lwmod *****************
 Defined at:
		line 8 in file "C:\Program Files (x86)\Microchip\xc8\v1.38\sources\common\lwmod.c"
 Parameters:    Size  Location     Type
  dividend        2   12[BANK0 ] unsigned int 
  divisor         2   14[BANK0 ] unsigned int 
 Auto vars:     Size  Location     Type
  counter         1   16[BANK0 ] unsigned char 
 Return value:  Size  Location     Type
                  2   12[BANK0 ] unsigned int 
 Registers used:
		wreg, status,2, status,0
 Tracked objects:
		On entry : 
		On exit  : 
		Unchanged: 
 Data sizes:     COMRAM   BANK0   BANK1   BANK2   BANK3   BANK4   BANK5   BANK6   BANK7   BANK8   BANK9  BANK10  BANK11  BANK12  BANK13  BANK14
      Params:         0       4       0       0       0       0       0       0       0       0       0       0       0       0       0       0
      Locals:         0       1       0       0       0       0       0       0       0       0       0       0       0       0       0       0
      Temps:          0       0       0       0       0       0       0       0       0       0       0       0       0       0       0       0
      Totals:         0       5       0       0       0       0       0       0       0       0       0       0       0       0       0       0
Total ram usage:        5 bytes
 Hardware stack levels used:    1
 Hardware stack levels required when called:    4
 This function calls:
		Nothing
 This function is called by:
		_LEAppendNeighborInfo
		_le_findRandomNeighborIdx
 This function uses a non-reentrant model


 *************** function ___lwdiv *****************
 Defined at:
		line 8 in file "C:\Program Files (x86)\Microchip\xc8\v1.38\sources\common\lwdiv.c"
 Parameters:    Size  Location     Type
  dividend        2    0[BANK0 ] unsigned int 
  divisor         2    2[BANK0 ] unsigned int 
 Auto vars:     Size  Location     Type
  quotient        2    5[BANK0 ] unsigned int 
  counter         1    4[BANK0 ] unsigned char 
 Return value:  Size  Location     Type
                  2    0[BANK0 ] unsigned int 
 Registers used:
		wreg, status,2, status,0
 Tracked objects:
		On entry : 
		On exit  : 
		Unchanged: 
 Data sizes:     COMRAM   BANK0   BANK1   BANK2   BANK3   BANK4   BANK5   BANK6   BANK7   BANK8   BANK9  BANK10  BANK11  BANK12  BANK13  BANK14
      Params:         0       4       0       0       0       0       0       0       0       0       0       0       0       0       0       0
      Locals:         0       3       0       0       0       0       0       0       0       0       0       0       0       0       0       0
      Temps:          0       0       0       0       0       0       0       0       0       0       0       0       0       0       0       0
      Totals:         0       7       0       0       0       0       0       0       0       0       0       0       0       0       0       0
Total ram usage:        7 bytes
 Hardware stack levels used:    1
 Hardware stack levels required when called:    4
 This function calls:
		Nothing
 This function is called by:
		_sprintf
		_LEAppendNeighborInfo
		_le_updateETX
		_le_updateNeighborTableEst
 This function uses a non-reentrant model


 *************** function _netDecayInterval *****************
 Defined at:
		line 142 in file "../BeaconManager.c"
 Parameters:    Size  Location     Type
		None
 Auto vars:     Size  Location     Type
		None
 Return value:  Size  Location     Type
                  1    wreg      void 
 Registers used:
		wreg, fsr0l, fsr0h, fsr1l, fsr1h, fsr2l, fsr2h, status,2, status,0, cstack
 Tracked objects:
		On entry : 
		On exit  : 
		Unchanged: 
 Data sizes:     COMRAM   BANK0   BANK1   BANK2   BANK3   BANK4   BANK5   BANK6   BANK7   BANK8   BANK9  BANK10  BANK11  BANK12  BANK13  BANK14
      Params:         0       0       0       0       0       0       0       0       0       0       0       0       0       0       0       0
      Locals:         0       0       0       0       0       0       0       0       0       0       0       0       0       0       0       0
      Temps:          0       0       0       0       0       0       0       0       0       0       0       0       0       0       0       0
      Totals:         0       0       0       0       0       0       0       0       0       0       0       0       0       0       0       0
Total ram usage:        0 bytes
 Hardware stack levels used:    1
 Hardware stack levels required when called:    8
 This function calls:
		_netChooseAdvertiseTime
 This function is called by:
		_BeaconManagerTask
 This function uses a non-reentrant model


 *************** function _MSTickGetDiffNow *****************
 Defined at:
		line 28 in file "../TimeTick.c"
 Parameters:    Size  Location     Type
  tick            8   28[BANK0 ] struct TickMS_t_def
 Auto vars:     Size  Location     Type
  tdiff           8   48[BANK0 ] struct TickMS_t_def
  tNow            8   40[BANK0 ] struct TickMS_t_def
  diff            4   36[BANK0 ] unsigned long 
 Return value:  Size  Location     Type
                  4   28[BANK0 ] unsigned long 
 Registers used:
		wreg, fsr0l, fsr0h, fsr1l, fsr1h, fsr2l, fsr2h, status,2, status,0, cstack
 Tracked objects:
		On entry : 
		On exit  : 
		Unchanged: 
 Data sizes:     COMRAM   BANK0   BANK1   BANK2   BANK3   BANK4   BANK5   BANK6   BANK7   BANK8   BANK9  BANK10  BANK11  BANK12  BANK13  BANK14
      Params:         0       8       0       0       0       0       0       0       0       0       0       0       0       0       0       0
      Locals:         0      20       0       0       0       0       0       0       0       0       0       0       0       0       0       0
      Temps:          0       0       0       0       0       0       0       0       0       0       0       0       0       0       0       0
      Totals:         0      28       0       0       0       0       0       0       0       0       0       0       0       0       0       0
Total ram usage:       28 bytes
 Hardware stack levels used:    1
 Hardware stack levels required when called:    7
 This function calls:
		_MSTickGet
 This function is called by:
		_RouteManagerTask
		_BeaconManagerTask
		_TunnelManagerGetTunnel
		_isKnownPacket
		_TransportManagerTask
		_NetworkManagerTask
 This function uses a non-reentrant model


 *************** function _MiMAC_ReceivedPacket *****************
 Defined at:
		line 433 in file "../../../../../../framework/driver/mrf_miwi/src/drv_mrf_miwi_mesh_24j40.c"
 Parameters:    Size  Location     Type
		None
 Auto vars:     Size  Location     Type
  bIntraPAN       1   19[BANK0 ] unsigned char 
  addrMode        1   17[BANK0 ] unsigned char 
  i               1   18[BANK0 ] unsigned char 
 Return value:  Size  Location     Type
                  1    wreg      unsigned char 
 Registers used:
		wreg, fsr1l, fsr1h, fsr2l, fsr2h, status,2, status,0, tblptrl, tblptrh, tblptru, prodl, prodh, cstack
 Tracked objects:
		On entry : 
		On exit  : 
		Unchanged: 
 Data sizes:     COMRAM   BANK0   BANK1   BANK2   BANK3   BANK4   BANK5   BANK6   BANK7   BANK8   BANK9  BANK10  BANK11  BANK12  BANK13  BANK14
      Params:         0       0       0       0       0       0       0       0       0       0       0       0       0       0       0       0
      Locals:         0       3       0       0       0       0       0       0       0       0       0       0       0       0       0       0
      Temps:          0       5       0       0       0       0       0       0       0       0       0       0       0       0       0       0
      Totals:         0       8       0       0       0       0       0       0       0       0       0       0       0       0       0       0
Total ram usage:        8 bytes
 Hardware stack levels used:    1
 Hardware stack levels required when called:    5
 This function calls:
		_MiMAC_DiscardPacket
		_memcpy
 This function is called by:
		_MiApp_MessageAvailable
 This function uses a non-reentrant model


 *************** function _MiMAC_DiscardPacket *****************
 Defined at:
		line 745 in file "../../../../../../framework/driver/mrf_miwi/src/drv_mrf_miwi_mesh_24j40.c"
 Parameters:    Size  Location     Type
		None
 Auto vars:     Size  Location     Type
		None
 Return value:  Size  Location     Type
                  1    wreg      void 
 Registers used:
		wreg, fsr2l, fsr2h, status,2, status,0, prodl, prodh
 Tracked objects:
		On entry : 
		On exit  : 
		Unchanged: 
 Data sizes:     COMRAM   BANK0   BANK1   BANK2   BANK3   BANK4   BANK5   BANK6   BANK7   BANK8   BANK9  BANK10  BANK11  BANK12  BANK13  BANK14
      Params:         0       0       0       0       0       0       0       0       0       0       0       0       0       0       0       0
      Locals:         0       0       0       0       0       0       0       0       0       0       0       0       0       0       0       0
      Temps:          0       0       0       0       0       0       0       0       0       0       0       0       0       0       0       0
      Totals:         0       0       0       0       0       0       0       0       0       0       0       0       0       0       0       0
Total ram usage:        0 bytes
 Hardware stack levels used:    1
 Hardware stack levels required when called:    4
 This function calls:
		Nothing
 This function is called by:
		_radioDiscardPacket
		_MiMAC_ReceivedPacket
 This function uses a non-reentrant model


 *************** function _AddNodeToNetworkTable *****************
 Defined at:
		line 291 in file "../src/Bridge.c"
 Parameters:    Size  Location     Type
  address         8   32[BANK0 ] struct addr_t_def
  PANID           2   40[BANK0 ] unsigned int 
 Auto vars:     Size  Location     Type
  i               2   48[BANK0 ] unsigned int 
  ind             2   46[BANK0 ] unsigned int 
 Return value:  Size  Location     Type
                  2   32[BANK0 ] unsigned int 
 Registers used:
		wreg, fsr0l, fsr0h, fsr1l, fsr1h, fsr2l, fsr2h, status,2, status,0, prodl, prodh, cstack
 Tracked objects:
		On entry : 
		On exit  : 
		Unchanged: 
 Data sizes:     COMRAM   BANK0   BANK1   BANK2   BANK3   BANK4   BANK5   BANK6   BANK7   BANK8   BANK9  BANK10  BANK11  BANK12  BANK13  BANK14
      Params:         0      10       0       0       0       0       0       0       0       0       0       0       0       0       0       0
      Locals:         0       4       0       0       0       0       0       0       0       0       0       0       0       0       0       0
      Temps:          0       4       0       0       0       0       0       0       0       0       0       0       0       0       0       0
      Totals:         0      18       0       0       0       0       0       0       0       0       0       0       0       0       0       0
Total ram usage:       18 bytes
 Hardware stack levels used:    1
 Hardware stack levels required when called:    6
 This function calls:
		_isSameAddress
		_memcpy
		_memset
 This function is called by:
		_MiApp_MessageAvailable
 This function uses a non-reentrant model


 *************** function _MiApp_DiscardMessage *****************
 Defined at:
		line 262 in file "../src/Bridge.c"
 Parameters:    Size  Location     Type
		None
 Auto vars:     Size  Location     Type
		None
 Return value:  Size  Location     Type
                  1    wreg      void 
 Registers used:
		cstack
 Tracked objects:
		On entry : 
		On exit  : 
		Unchanged: 
 Data sizes:     COMRAM   BANK0   BANK1   BANK2   BANK3   BANK4   BANK5   BANK6   BANK7   BANK8   BANK9  BANK10  BANK11  BANK12  BANK13  BANK14
      Params:         0       0       0       0       0       0       0       0       0       0       0       0       0       0       0       0
      Locals:         0       0       0       0       0       0       0       0       0       0       0       0       0       0       0       0
      Temps:          0       0       0       0       0       0       0       0       0       0       0       0       0       0       0       0
      Totals:         0       0       0       0       0       0       0       0       0       0       0       0       0       0       0       0
Total ram usage:        0 bytes
 Hardware stack levels used:    1
 Hardware stack levels required when called:    5
 This function calls:
		_NetworkReleaseUserData
 This function is called by:
		_main
		_MiApp_SearchConnection
 This function uses a non-reentrant model


 *************** function _NetworkReleaseUserData *****************
 Defined at:
		line 353 in file "../NetworkManager.c"
 Parameters:    Size  Location     Type
		None
 Auto vars:     Size  Location     Type
		None
 Return value:  Size  Location     Type
                  1    wreg      void 
 Registers used:
		None
 Tracked objects:
		On entry : 
		On exit  : 
		Unchanged: 
 Data sizes:     COMRAM   BANK0   BANK1   BANK2   BANK3   BANK4   BANK5   BANK6   BANK7   BANK8   BANK9  BANK10  BANK11  BANK12  BANK13  BANK14
      Params:         0       0       0       0       0       0       0       0       0       0       0       0       0       0       0       0
      Locals:         0       0       0       0       0       0       0       0       0       0       0       0       0       0       0       0
      Temps:          0       0       0       0       0       0       0       0       0       0       0       0       0       0       0       0
      Totals:         0       0       0       0       0       0       0       0       0       0       0       0       0       0       0       0
Total ram usage:        0 bytes
 Hardware stack levels used:    1
 Hardware stack levels required when called:    4
 This function calls:
		Nothing
 This function is called by:
		_MiApp_DiscardMessage
 This function uses a non-reentrant model


 *************** function _MiApp_RequestData *****************
 Defined at:
		line 432 in file "../src/Bridge.c"
 Parameters:    Size  Location     Type
		None
 Auto vars:     Size  Location     Type
		None
 Return value:  Size  Location     Type
                  1    wreg      void 
 Registers used:
		wreg, fsr0l, fsr0h, fsr1l, fsr1h, fsr2l, fsr2h, status,2, status,0, tblptrl, tblptrh, tblptru, prodl, prodh, cstack
 Tracked objects:
		On entry : 
		On exit  : 
		Unchanged: 
 Data sizes:     COMRAM   BANK0   BANK1   BANK2   BANK3   BANK4   BANK5   BANK6   BANK7   BANK8   BANK9  BANK10  BANK11  BANK12  BANK13  BANK14
      Params:         0       0       0       0       0       0       0       0       0       0       0       0       0       0       0       0
      Locals:         0       0       0       0       0       0       0       0       0       0       0       0       0       0       0       0
      Temps:          0       0       0       0       0       0       0       0       0       0       0       0       0       0       0       0
      Totals:         0       0       0       0       0       0       0       0       0       0       0       0       0       0       0       0
Total ram usage:        0 bytes
 Hardware stack levels used:    1
 Hardware stack levels required when called:   12
 This function calls:
		_NetworkIssueDataRequest
 This function is called by:
		_main
 This function uses a non-reentrant model


 *************** function _NetworkIssueDataRequest *****************
 Defined at:
		line 419 in file "../NetworkManager.c"
 Parameters:    Size  Location     Type
		None
 Auto vars:     Size  Location     Type
  data           28   78[BANK0 ] unsigned char [28]
  sz              2  106[BANK0 ] unsigned int 
 Return value:  Size  Location     Type
                  1    wreg      void 
 Registers used:
		wreg, fsr0l, fsr0h, fsr1l, fsr1h, fsr2l, fsr2h, status,2, status,0, tblptrl, tblptrh, tblptru, prodl, prodh, cstack
 Tracked objects:
		On entry : 
		On exit  : 
		Unchanged: 
 Data sizes:     COMRAM   BANK0   BANK1   BANK2   BANK3   BANK4   BANK5   BANK6   BANK7   BANK8   BANK9  BANK10  BANK11  BANK12  BANK13  BANK14
      Params:         0       0       0       0       0       0       0       0       0       0       0       0       0       0       0       0
      Locals:         0      30       0       0       0       0       0       0       0       0       0       0       0       0       0       0
      Temps:          0       0       0       0       0       0       0       0       0       0       0       0       0       0       0       0
      Totals:         0      30       0       0       0       0       0       0       0       0       0       0       0       0       0       0
Total ram usage:       30 bytes
 Hardware stack levels used:    1
 Hardware stack levels required when called:   11
 This function calls:
		_CoordinatorGenericAddress
		_NetworkGetPANID
		_NetworkGetParentAddress
		_NetworkPrepareSendPacket
		_RouterEvicted
		_isNetworkSecurityEnabled
		_radioUnicast
 This function is called by:
		_MiApp_RequestData
 This function uses a non-reentrant model


 *************** function _radioUnicast *****************
 Defined at:
		line 129 in file "../src/Bridge.c"
 Parameters:    Size  Location     Type
  dest            8   63[BANK0 ] struct addr_t_def
  PANID           2   71[BANK0 ] unsigned int 
  data            2   73[BANK0 ] PTR unsigned char 
		 -> NetworkIssueDataRequest@data(28), NetworkManagerProcessIncomingData@buffer(64), NetworkManagerTask@data(37), TMSendDataToRFD@databuff(64), 
		 -> TransportManagerTask@databuff(64), RxBuffer.Payload(127), RxBuffer(256), 
  datasize        1   75[BANK0 ] unsigned char 
  isSecure        1   76[BANK0 ] unsigned char 
 Auto vars:     Size  Location     Type
  i               1   77[BANK0 ] unsigned char 
 Return value:  Size  Location     Type
                  1    wreg      unsigned char 
 Registers used:
		wreg, fsr0l, fsr0h, fsr1l, fsr1h, fsr2l, fsr2h, status,2, status,0, tblptrl, tblptrh, tblptru, prodl, prodh, cstack
 Tracked objects:
		On entry : 
		On exit  : 
		Unchanged: 
 Data sizes:     COMRAM   BANK0   BANK1   BANK2   BANK3   BANK4   BANK5   BANK6   BANK7   BANK8   BANK9  BANK10  BANK11  BANK12  BANK13  BANK14
      Params:         0      14       0       0       0       0       0       0       0       0       0       0       0       0       0       0
      Locals:         0       1       0       0       0       0       0       0       0       0       0       0       0       0       0       0
      Temps:          0       0       0       0       0       0       0       0       0       0       0       0       0       0       0       0
      Totals:         0      15       0       0       0       0       0       0       0       0       0       0       0       0       0       0
Total ram usage:       15 bytes
 Hardware stack levels used:    1
 Hardware stack levels required when called:   10
 This function calls:
		_SendPacket
 This function is called by:
		_radioReceivedPacket
		_TransportManagerTask
		_TMSendFormedPacketToRFD
		_NetworkManagerTask
		_NetworkIssueDataRequest
 This function uses a non-reentrant model


 *************** function _SendPacket *****************
 Defined at:
		line 67 in file "../src/Bridge.c"
 Parameters:    Size  Location     Type
  Broadcast       1    wreg     unsigned char 
  DestinationA    2   47[BANK0 ] PTR unsigned char 
		 -> radioUnicast@addr(8), radioBroadcast@addr(8), 
  destinationP    2   49[BANK0 ] unsigned int 
  isCommand       1   51[BANK0 ] unsigned char 
  SecurityEnab    1   52[BANK0 ] unsigned char 
 Auto vars:     Size  Location     Type
  Broadcast       1   55[BANK0 ] unsigned char 
  tParam          7   56[BANK0 ] struct .
  status          1   54[BANK0 ] unsigned char 
 Return value:  Size  Location     Type
                  1    wreg      unsigned char 
 Registers used:
		wreg, fsr0l, fsr0h, fsr1l, fsr1h, fsr2l, fsr2h, status,2, status,0, tblptrl, tblptrh, tblptru, prodl, prodh, cstack
 Tracked objects:
		On entry : 
		On exit  : 
		Unchanged: 
 Data sizes:     COMRAM   BANK0   BANK1   BANK2   BANK3   BANK4   BANK5   BANK6   BANK7   BANK8   BANK9  BANK10  BANK11  BANK12  BANK13  BANK14
      Params:         0       6       0       0       0       0       0       0       0       0       0       0       0       0       0       0
      Locals:         0       9       0       0       0       0       0       0       0       0       0       0       0       0       0       0
      Temps:          0       1       0       0       0       0       0       0       0       0       0       0       0       0       0       0
      Totals:         0      16       0       0       0       0       0       0       0       0       0       0       0       0       0       0
Total ram usage:       16 bytes
 Hardware stack levels used:    1
 Hardware stack levels required when called:    9
 This function calls:
		_MiMAC_SendPacket
 This function is called by:
		_radioBroadcast
		_radioUnicast
 This function uses a non-reentrant model


 *************** function _MiMAC_SendPacket *****************
 Defined at:
		line 789 in file "../../../../../../framework/driver/mrf_miwi/src/drv_mrf_miwi_mesh_24j40.c"
 Parameters:    Size  Location     Type
  transParam      7   20[BANK0 ] struct .
  MACPayload      2   27[BANK0 ] PTR unsigned char 
		 -> TxBuff(64), 
  MACPayloadLe    1   29[BANK0 ] unsigned char 
 Auto vars:     Size  Location     Type
  t2              4   39[BANK0 ] struct MIWI_TICK_t
  t1              4   35[BANK0 ] struct MIWI_TICK_t
  loc             1   46[BANK0 ] unsigned char 
  i               1   45[BANK0 ] unsigned char 
  headerLength    1   44[BANK0 ] unsigned char 
  IntraPAN        1   43[BANK0 ] unsigned char 
 Return value:  Size  Location     Type
                  1    wreg      unsigned char 
 Registers used:
		wreg, fsr1l, fsr1h, fsr2l, fsr2h, status,2, status,0, tblptrl, tblptrh, tblptru, prodl, prodh, cstack
 Tracked objects:
		On entry : 
		On exit  : 
		Unchanged: 
 Data sizes:     COMRAM   BANK0   BANK1   BANK2   BANK3   BANK4   BANK5   BANK6   BANK7   BANK8   BANK9  BANK10  BANK11  BANK12  BANK13  BANK14
      Params:         0      10       0       0       0       0       0       0       0       0       0       0       0       0       0       0
      Locals:         0      12       0       0       0       0       0       0       0       0       0       0       0       0       0       0
      Temps:          0       5       0       0       0       0       0       0       0       0       0       0       0       0       0       0
      Totals:         0      27       0       0       0       0       0       0       0       0       0       0       0       0       0       0
Total ram usage:       27 bytes
 Hardware stack levels used:    1
 Hardware stack levels required when called:    8
 This function calls:
		_InitMRF24J40
		_MiMAC_SetAltAddress
		_MiWi_TickGetMs
		_PHYSetLongRAMAddr
		_PHYSetShortRAMAddr
 This function is called by:
		_SendPacket
 This function uses a non-reentrant model


 *************** function _isNetworkSecurityEnabled *****************
 Defined at:
		line 385 in file "../NetworkManager.c"
 Parameters:    Size  Location     Type
		None
 Auto vars:     Size  Location     Type
		None
 Return value:  Size  Location     Type
                  1    wreg      unsigned char 
 Registers used:
		wreg, status,2
 Tracked objects:
		On entry : 
		On exit  : 
		Unchanged: 
 Data sizes:     COMRAM   BANK0   BANK1   BANK2   BANK3   BANK4   BANK5   BANK6   BANK7   BANK8   BANK9  BANK10  BANK11  BANK12  BANK13  BANK14
      Params:         0       0       0       0       0       0       0       0       0       0       0       0       0       0       0       0
      Locals:         0       0       0       0       0       0       0       0       0       0       0       0       0       0       0       0
      Temps:          0       0       0       0       0       0       0       0       0       0       0       0       0       0       0       0
      Totals:         0       0       0       0       0       0       0       0       0       0       0       0       0       0       0       0
Total ram usage:        0 bytes
 Hardware stack levels used:    1
 Hardware stack levels required when called:    4
 This function calls:
		Nothing
 This function is called by:
		_networkSendBeacon
		_NetworkManagerTask
		_NetworkSendDiscoverResponse
		_NetworkIssueDataRequest
 This function uses a non-reentrant model


 *************** function _RouterEvicted *****************
 Defined at:
		line 223 in file "../RouteManager.c"
 Parameters:    Size  Location     Type
  address         8   46[BANK0 ] struct addr_t_def
 Auto vars:     Size  Location     Type
  r               2   56[BANK0 ] PTR struct route_info_t_
		 -> routeInfo(13), 
  i               1   59[BANK0 ] unsigned char 
  idx             1   58[BANK0 ] unsigned char 
 Return value:  Size  Location     Type
                  1    wreg      void 
 Registers used:
		wreg, fsr0l, fsr0h, fsr1l, fsr1h, fsr2l, fsr2h, status,2, status,0, tblptrl, tblptrh, tblptru, prodl, prodh, cstack
 Tracked objects:
		On entry : 
		On exit  : 
		Unchanged: 
 Data sizes:     COMRAM   BANK0   BANK1   BANK2   BANK3   BANK4   BANK5   BANK6   BANK7   BANK8   BANK9  BANK10  BANK11  BANK12  BANK13  BANK14
      Params:         0       8       0       0       0       0       0       0       0       0       0       0       0       0       0       0
      Locals:         0       4       0       0       0       0       0       0       0       0       0       0       0       0       0       0
      Temps:          0       2       0       0       0       0       0       0       0       0       0       0       0       0       0       0
      Totals:         0      14       0       0       0       0       0       0       0       0       0       0       0       0       0       0
Total ram usage:       14 bytes
 Hardware stack levels used:    1
 Hardware stack levels required when called:    8
 This function calls:
		_NetworkGetMyRouteInfo
		_RouteManagerRequestUpdate
		_isSameAddress
		_routeInfoInit
		_routingTableFind
 This function is called by:
		_RouteManagerProcessReceive
		_LE_InsertNeighbor
		_LE_processReceivedMessage
		_LE_RemoveNeighborDevice
		_TransportManagerTask
		_NetworkManagerTask
		_NetworkIssueDataRequest
 This function uses a non-reentrant model


 *************** function _routingTableFind *****************
 Defined at:
		line 204 in file "../RouteManager.c"
 Parameters:    Size  Location     Type
  neighbor        8   33[BANK0 ] struct addr_t_def
 Auto vars:     Size  Location     Type
  res             2   43[BANK0 ] unsigned int 
  i               1   45[BANK0 ] unsigned char 
 Return value:  Size  Location     Type
                  1    wreg      unsigned char 
 Registers used:
		wreg, fsr0l, fsr0h, fsr1l, fsr1h, fsr2l, fsr2h, status,2, status,0, tblptrl, tblptrh, tblptru, prodl, prodh, cstack
 Tracked objects:
		On entry : 
		On exit  : 
		Unchanged: 
 Data sizes:     COMRAM   BANK0   BANK1   BANK2   BANK3   BANK4   BANK5   BANK6   BANK7   BANK8   BANK9  BANK10  BANK11  BANK12  BANK13  BANK14
      Params:         0       8       0       0       0       0       0       0       0       0       0       0       0       0       0       0
      Locals:         0       3       0       0       0       0       0       0       0       0       0       0       0       0       0       0
      Temps:          0       2       0       0       0       0       0       0       0       0       0       0       0       0       0       0
      Totals:         0      13       0       0       0       0       0       0       0       0       0       0       0       0       0       0
Total ram usage:       13 bytes
 Hardware stack levels used:    1
 Hardware stack levels required when called:    7
 This function calls:
		_isInvalidAddress
		_isSameAddress
 This function is called by:
		_RouterEvicted
		_routingTableUpdateEntry
 This function uses a non-reentrant model


 *************** function _isSameAddress *****************
 Defined at:
		line 245 in file "../NetworkManager.c"
 Parameters:    Size  Location     Type
  a1              8   16[BANK0 ] struct addr_t_def
  a2              8   24[BANK0 ] struct addr_t_def
 Auto vars:     Size  Location     Type
		None
 Return value:  Size  Location     Type
                  1    wreg      unsigned char 
 Registers used:
		wreg, fsr1l, fsr1h, fsr2l, fsr2h, status,2, status,0, cstack
 Tracked objects:
		On entry : 
		On exit  : 
		Unchanged: 
 Data sizes:     COMRAM   BANK0   BANK1   BANK2   BANK3   BANK4   BANK5   BANK6   BANK7   BANK8   BANK9  BANK10  BANK11  BANK12  BANK13  BANK14
      Params:         0      16       0       0       0       0       0       0       0       0       0       0       0       0       0       0
      Locals:         0       0       0       0       0       0       0       0       0       0       0       0       0       0       0       0
      Temps:          0       0       0       0       0       0       0       0       0       0       0       0       0       0       0       0
      Totals:         0      16       0       0       0       0       0       0       0       0       0       0       0       0       0       0
Total ram usage:       16 bytes
 Hardware stack levels used:    1
 Hardware stack levels required when called:    5
 This function calls:
		_NetworkAddressSizeGet
		_memcmp
 This function is called by:
		_AddNodeToNetworkTable
		_radioReceivedPacket
		_NetworkUnicastData
		_RouteManagerPerformUpdate
		_routingTableFind
		_RouterEvicted
		_RouteManagerShouldInsert
		_RoutingTableFindDeviceOrParent
		_le_findIdx
		_le_findWorstNeighborIdx
		_le_updateNeighborTableEst
		_le_findRandomNeighborIdx
		_TunnelManagerSetTunnel
		_TunnelManagerGetTunnel
		_TunnelManagerInvalidateTunnel
		_TMSendFormedPacketToRFD
		_IsNetworkDevice
		_DeviceManagerGetDeviceType
		_DeviceManagerGetDeviceData
 This function uses a non-reentrant model


 *************** function _routeInfoInit *****************
 Defined at:
		line 195 in file "../RouteManager.c"
 Parameters:    Size  Location     Type
  ri              2    8[BANK0 ] PTR struct route_info_t_
		 -> routeInfo(13), 
 Auto vars:     Size  Location     Type
		None
 Return value:  Size  Location     Type
                  1    wreg      void 
 Registers used:
		wreg, fsr2l, fsr2h, status,2, status,0, cstack
 Tracked objects:
		On entry : 
		On exit  : 
		Unchanged: 
 Data sizes:     COMRAM   BANK0   BANK1   BANK2   BANK3   BANK4   BANK5   BANK6   BANK7   BANK8   BANK9  BANK10  BANK11  BANK12  BANK13  BANK14
      Params:         0       2       0       0       0       0       0       0       0       0       0       0       0       0       0       0
      Locals:         0       0       0       0       0       0       0       0       0       0       0       0       0       0       0       0
      Temps:          0       0       0       0       0       0       0       0       0       0       0       0       0       0       0       0
      Totals:         0       2       0       0       0       0       0       0       0       0       0       0       0       0       0       0
Total ram usage:        2 bytes
 Hardware stack levels used:    1
 Hardware stack levels required when called:    5
 This function calls:
		_NetworkAddressSizeGet
		_memset
 This function is called by:
		_RouterEvicted
 This function uses a non-reentrant model


 *************** function _RouteManagerRequestUpdate *****************
 Defined at:
		line 185 in file "../RouteManager.c"
 Parameters:    Size  Location     Type
		None
 Auto vars:     Size  Location     Type
		None
 Return value:  Size  Location     Type
                  1    wreg      void 
 Registers used:
		wreg, status,2
 Tracked objects:
		On entry : 
		On exit  : 
		Unchanged: 
 Data sizes:     COMRAM   BANK0   BANK1   BANK2   BANK3   BANK4   BANK5   BANK6   BANK7   BANK8   BANK9  BANK10  BANK11  BANK12  BANK13  BANK14
      Params:         0       0       0       0       0       0       0       0       0       0       0       0       0       0       0       0
      Locals:         0       0       0       0       0       0       0       0       0       0       0       0       0       0       0       0
      Temps:          0       0       0       0       0       0       0       0       0       0       0       0       0       0       0       0
      Totals:         0       0       0       0       0       0       0       0       0       0       0       0       0       0       0       0
Total ram usage:        0 bytes
 Hardware stack levels used:    1
 Hardware stack levels required when called:    4
 This function calls:
		Nothing
 This function is called by:
		_RouterEvicted
 This function uses a non-reentrant model


 *************** function _NetworkGetMyRouteInfo *****************
 Defined at:
		line 240 in file "../NetworkManager.c"
 Parameters:    Size  Location     Type
		None
 Auto vars:     Size  Location     Type
		None
 Return value:  Size  Location     Type
                  2    0[BANK0 ] PTR struct route_info_t_
 Registers used:
		wreg, status,2, status,0
 Tracked objects:
		On entry : 
		On exit  : 
		Unchanged: 
 Data sizes:     COMRAM   BANK0   BANK1   BANK2   BANK3   BANK4   BANK5   BANK6   BANK7   BANK8   BANK9  BANK10  BANK11  BANK12  BANK13  BANK14
      Params:         0       2       0       0       0       0       0       0       0       0       0       0       0       0       0       0
      Locals:         0       0       0       0       0       0       0       0       0       0       0       0       0       0       0       0
      Temps:          0       0       0       0       0       0       0       0       0       0       0       0       0       0       0       0
      Totals:         0       2       0       0       0       0       0       0       0       0       0       0       0       0       0       0
Total ram usage:        2 bytes
 Hardware stack levels used:    1
 Hardware stack levels required when called:    4
 This function calls:
		Nothing
 This function is called by:
		_RouteManagerPerformUpdate
		_RouterEvicted
		_networkSendBeacon
 This function uses a non-reentrant model


 *************** function _NetworkPrepareSendPacket *****************
 Defined at:
		line 358 in file "../NetworkManager.c"
 Parameters:    Size  Location     Type
  address         8   16[BANK0 ] struct addr_t_def
  buffer          2   24[BANK0 ] PTR unsigned char 
		 -> NetworkIssueDataRequest@data(28), NetworkSendDiscoverResponse@databuff(64), NetworkSendDiscoverRequest@databuff(64), NetworkManagerTask@data(37), 
		 -> TMSendDataToRFD@databuff(64), TransportManagerTask@databuff(64), NetworkBroadcastData@databuff(64), 
  pType           1   26[BANK0 ] enum E200
  data            2   27[BANK0 ] PTR unsigned char 
		 -> NetworkManagerProcessIncomingData@buffer(64), TMQ(152), NULL(0), TxBuffer(64), 
  size            2   29[BANK0 ] unsigned int 
 Auto vars:     Size  Location     Type
  nHdr            2   31[BANK0 ] PTR struct net_data_head
		 -> NetworkIssueDataRequest@data(28), NetworkSendDiscoverResponse@databuff(64), NetworkSendDiscoverRequest@databuff(64), NetworkManagerTask@data(37), 
		 -> TMSendDataToRFD@databuff(64), TransportManagerTask@databuff(64), NetworkBroadcastData@databuff(64), 
 Return value:  Size  Location     Type
                  2   16[BANK0 ] unsigned int 
 Registers used:
		wreg, fsr0l, fsr0h, fsr1l, fsr1h, fsr2l, fsr2h, status,2, status,0, cstack
 Tracked objects:
		On entry : 
		On exit  : 
		Unchanged: 
 Data sizes:     COMRAM   BANK0   BANK1   BANK2   BANK3   BANK4   BANK5   BANK6   BANK7   BANK8   BANK9  BANK10  BANK11  BANK12  BANK13  BANK14
      Params:         0      15       0       0       0       0       0       0       0       0       0       0       0       0       0       0
      Locals:         0       2       0       0       0       0       0       0       0       0       0       0       0       0       0       0
      Temps:          0       0       0       0       0       0       0       0       0       0       0       0       0       0       0       0
      Totals:         0      17       0       0       0       0       0       0       0       0       0       0       0       0       0       0
Total ram usage:       17 bytes
 Hardware stack levels used:    1
 Hardware stack levels required when called:    5
 This function calls:
		_NetworkAddressSizeGet
		_NetworkGetDeviceType
		_NetworkGetParentAddress
		_NetworkManagerGetMyAddress
		_NetworkSequence
		_memcpy
 This function is called by:
		_TransportManagerTask
		_TMSendDataToRFD
		_NetworkManagerTask
		_NetworkSendDiscoverRequest
		_NetworkSendDiscoverResponse
		_NetworkIssueDataRequest
		_NetworkBroadcastData
 This function uses a non-reentrant model


 *************** function _NetworkSequence *****************
 Defined at:
		line 270 in file "../NetworkManager.c"
 Parameters:    Size  Location     Type
		None
 Auto vars:     Size  Location     Type
		None
 Return value:  Size  Location     Type
                  1    wreg      unsigned char 
 Registers used:
		wreg, status,2, status,0
 Tracked objects:
		On entry : 
		On exit  : 
		Unchanged: 
 Data sizes:     COMRAM   BANK0   BANK1   BANK2   BANK3   BANK4   BANK5   BANK6   BANK7   BANK8   BANK9  BANK10  BANK11  BANK12  BANK13  BANK14
      Params:         0       0       0       0       0       0       0       0       0       0       0       0       0       0       0       0
      Locals:         0       0       0       0       0       0       0       0       0       0       0       0       0       0       0       0
      Temps:          0       0       0       0       0       0       0       0       0       0       0       0       0       0       0       0
      Totals:         0       0       0       0       0       0       0       0       0       0       0       0       0       0       0       0
Total ram usage:        0 bytes
 Hardware stack levels used:    1
 Hardware stack levels required when called:    4
 This function calls:
		Nothing
 This function is called by:
		_NetworkPrepareSendPacket
 This function uses a non-reentrant model


 *************** function _NetworkManagerGetMyAddress *****************
 Defined at:
		line 235 in file "../NetworkManager.c"
 Parameters:    Size  Location     Type
		None
 Auto vars:     Size  Location     Type
		None
 Return value:  Size  Location     Type
                  2    0[BANK0 ] PTR struct addr_t_def
 Registers used:
		wreg, status,2, status,0
 Tracked objects:
		On entry : 
		On exit  : 
		Unchanged: 
 Data sizes:     COMRAM   BANK0   BANK1   BANK2   BANK3   BANK4   BANK5   BANK6   BANK7   BANK8   BANK9  BANK10  BANK11  BANK12  BANK13  BANK14
      Params:         0       2       0       0       0       0       0       0       0       0       0       0       0       0       0       0
      Locals:         0       0       0       0       0       0       0       0       0       0       0       0       0       0       0       0
      Temps:          0       0       0       0       0       0       0       0       0       0       0       0       0       0       0       0
      Totals:         0       2       0       0       0       0       0       0       0       0       0       0       0       0       0       0
Total ram usage:        2 bytes
 Hardware stack levels used:    1
 Hardware stack levels required when called:    4
 This function calls:
		Nothing
 This function is called by:
		_radioReceivedPacket
		_NetworkUnicastData
		_RouteManagerPerformUpdate
		_networkSendBeacon
		_TMSendFormedPacketToRFD
		_NetworkPrepareSendPacket
 This function uses a non-reentrant model


 *************** function _NetworkGetPANID *****************
 Defined at:
		line 390 in file "../NetworkManager.c"
 Parameters:    Size  Location     Type
		None
 Auto vars:     Size  Location     Type
		None
 Return value:  Size  Location     Type
                  2    0[BANK0 ] unsigned int 
 Registers used:
		None
 Tracked objects:
		On entry : 
		On exit  : 
		Unchanged: 
 Data sizes:     COMRAM   BANK0   BANK1   BANK2   BANK3   BANK4   BANK5   BANK6   BANK7   BANK8   BANK9  BANK10  BANK11  BANK12  BANK13  BANK14
      Params:         0       2       0       0       0       0       0       0       0       0       0       0       0       0       0       0
      Locals:         0       0       0       0       0       0       0       0       0       0       0       0       0       0       0       0
      Temps:          0       0       0       0       0       0       0       0       0       0       0       0       0       0       0       0
      Totals:         0       2       0       0       0       0       0       0       0       0       0       0       0       0       0       0
Total ram usage:        2 bytes
 Hardware stack levels used:    1
 Hardware stack levels required when called:    4
 This function calls:
		Nothing
 This function is called by:
		_radioReceivedPacket
		_networkSendBeacon
		_BroadcastManagerTask
		_TransportManagerTask
		_TMSendFormedPacketToRFD
		_NetworkManagerTask
		_NetworkIssueDataRequest
 This function uses a non-reentrant model


 *************** function _CoordinatorGenericAddress *****************
 Defined at:
		line 255 in file "../NetworkManager.c"
 Parameters:    Size  Location     Type
		None
 Auto vars:     Size  Location     Type
		None
 Return value:  Size  Location     Type
                  8    8[BANK0 ] struct addr_t_def
 Registers used:
		wreg, fsr0l, fsr0h, fsr2l, fsr2h, status,2, status,0, cstack
 Tracked objects:
		On entry : 
		On exit  : 
		Unchanged: 
 Data sizes:     COMRAM   BANK0   BANK1   BANK2   BANK3   BANK4   BANK5   BANK6   BANK7   BANK8   BANK9  BANK10  BANK11  BANK12  BANK13  BANK14
      Params:         0       8       0       0       0       0       0       0       0       0       0       0       0       0       0       0
      Locals:         0       0       0       0       0       0       0       0       0       0       0       0       0       0       0       0
      Temps:          0       0       0       0       0       0       0       0       0       0       0       0       0       0       0       0
      Totals:         0       8       0       0       0       0       0       0       0       0       0       0       0       0       0       0
Total ram usage:        8 bytes
 Hardware stack levels used:    1
 Hardware stack levels required when called:    5
 This function calls:
		_NetworkAddressSizeGet
		_memset
 This function is called by:
		_radioReceivedPacket
		_NetworkUnicastData
		_TransportManagerTask
		_NetworkManagerTask
		_NetworkIssueDataRequest
 This function uses a non-reentrant model


 *************** function _MiApp_ProtocolInit *****************
 Defined at:
		line 148 in file "../src/Bridge.c"
 Parameters:    Size  Location     Type
  bNetworkFree    1    wreg     unsigned char 
 Auto vars:     Size  Location     Type
  bNetworkFree    1    0[COMRAM] unsigned char 
  initValue       3   35[BANK0 ] struct .
  res             1    0        unsigned char 
 Return value:  Size  Location     Type
                  1    wreg      unsigned char 
 Registers used:
		wreg, fsr0l, fsr0h, fsr1l, fsr1h, fsr2l, fsr2h, status,2, status,0, prodl, prodh, cstack
 Tracked objects:
		On entry : 
		On exit  : 
		Unchanged: 
 Data sizes:     COMRAM   BANK0   BANK1   BANK2   BANK3   BANK4   BANK5   BANK6   BANK7   BANK8   BANK9  BANK10  BANK11  BANK12  BANK13  BANK14
      Params:         0       0       0       0       0       0       0       0       0       0       0       0       0       0       0       0
      Locals:         0       4       0       0       0       0       0       0       0       0       0       0       0       0       0       0
      Temps:          0       0       0       0       0       0       0       0       0       0       0       0       0       0       0       0
      Totals:         0       4       0       0       0       0       0       0       0       0       0       0       0       0       0       0
Total ram usage:        4 bytes
 Hardware stack levels used:    1
 Hardware stack levels required when called:    9
 This function calls:
		_MiApp_SetAddressPan
		_MiMAC_Init
		_MiMAC_SetAltAddress
		_NetworkSetDeviceType
		_memset
 This function is called by:
		_main
 This function uses a non-reentrant model


 *************** function _NetworkSetDeviceType *****************
 Defined at:
		line 441 in file "../NetworkManager.c"
 Parameters:    Size  Location     Type
  dev             1    wreg     enum E145
 Auto vars:     Size  Location     Type
  dev             1    0[BANK0 ] enum E145
 Return value:  Size  Location     Type
                  1    wreg      void 
 Registers used:
		wreg
 Tracked objects:
		On entry : 
		On exit  : 
		Unchanged: 
 Data sizes:     COMRAM   BANK0   BANK1   BANK2   BANK3   BANK4   BANK5   BANK6   BANK7   BANK8   BANK9  BANK10  BANK11  BANK12  BANK13  BANK14
      Params:         0       0       0       0       0       0       0       0       0       0       0       0       0       0       0       0
      Locals:         0       1       0       0       0       0       0       0       0       0       0       0       0       0       0       0
      Temps:          0       0       0       0       0       0       0       0       0       0       0       0       0       0       0       0
      Totals:         0       1       0       0       0       0       0       0       0       0       0       0       0       0       0       0
Total ram usage:        1 bytes
 Hardware stack levels used:    1
 Hardware stack levels required when called:    4
 This function calls:
		Nothing
 This function is called by:
		_MiApp_ProtocolInit
 This function uses a non-reentrant model


 *************** function _MiMAC_Init *****************
 Defined at:
		line 1547 in file "../../../../../../framework/driver/mrf_miwi/src/drv_mrf_miwi_mesh_24j40.c"
 Parameters:    Size  Location     Type
  initValue       3   20[BANK0 ] struct .
 Auto vars:     Size  Location     Type
  seed            2   23[BANK0 ] unsigned int 
  i               1   25[BANK0 ] unsigned char 
 Return value:  Size  Location     Type
                  1    wreg      unsigned char 
 Registers used:
		wreg, fsr2l, fsr2h, status,2, status,0, prodl, prodh, cstack
 Tracked objects:
		On entry : 
		On exit  : 
		Unchanged: 
 Data sizes:     COMRAM   BANK0   BANK1   BANK2   BANK3   BANK4   BANK5   BANK6   BANK7   BANK8   BANK9  BANK10  BANK11  BANK12  BANK13  BANK14
      Params:         0       3       0       0       0       0       0       0       0       0       0       0       0       0       0       0
      Locals:         0       3       0       0       0       0       0       0       0       0       0       0       0       0       0       0
      Temps:          0       0       0       0       0       0       0       0       0       0       0       0       0       0       0       0
      Totals:         0       6       0       0       0       0       0       0       0       0       0       0       0       0       0       0
Total ram usage:        6 bytes
 Hardware stack levels used:    1
 Hardware stack levels required when called:    8
 This function calls:
		_DelayMs
		_InitMRF24J40
		_MiMAC_ChannelAssessment
		_krnd
		_krndInit
 This function is called by:
		_MiApp_ProtocolInit
 This function uses a non-reentrant model


 *************** function _krndInit *****************
 Defined at:
		line 7 in file "../krnd.c"
 Parameters:    Size  Location     Type
  value           2    0[BANK0 ] unsigned int 
 Auto vars:     Size  Location     Type
		None
 Return value:  Size  Location     Type
                  1    wreg      void 
 Registers used:
		wreg, status,2, status,0
 Tracked objects:
		On entry : 
		On exit  : 
		Unchanged: 
 Data sizes:     COMRAM   BANK0   BANK1   BANK2   BANK3   BANK4   BANK5   BANK6   BANK7   BANK8   BANK9  BANK10  BANK11  BANK12  BANK13  BANK14
      Params:         0       2       0       0       0       0       0       0       0       0       0       0       0       0       0       0
      Locals:         0       0       0       0       0       0       0       0       0       0       0       0       0       0       0       0
      Temps:          0       4       0       0       0       0       0       0       0       0       0       0       0       0       0       0
      Totals:         0       6       0       0       0       0       0       0       0       0       0       0       0       0       0       0
Total ram usage:        6 bytes
 Hardware stack levels used:    1
 Hardware stack levels required when called:    4
 This function calls:
		Nothing
 This function is called by:
		_MiMAC_Init
 This function uses a non-reentrant model


 *************** function _MiMAC_ChannelAssessment *****************
 Defined at:
		line 1134 in file "../../../../../../framework/driver/mrf_miwi/src/drv_mrf_miwi_mesh_24j40.c"
 Parameters:    Size  Location     Type
  AssessmentMo    1    wreg     unsigned char 
 Auto vars:     Size  Location     Type
  AssessmentMo    1    0[COMRAM] unsigned char 
  RSSIcheck       1    8[BANK0 ] unsigned char 
 Return value:  Size  Location     Type
                  1    wreg      unsigned char 
 Registers used:
		wreg, status,2, status,0, cstack
 Tracked objects:
		On entry : 
		On exit  : 
		Unchanged: 
 Data sizes:     COMRAM   BANK0   BANK1   BANK2   BANK3   BANK4   BANK5   BANK6   BANK7   BANK8   BANK9  BANK10  BANK11  BANK12  BANK13  BANK14
      Params:         0       0       0       0       0       0       0       0       0       0       0       0       0       0       0       0
      Locals:         0       1       0       0       0       0       0       0       0       0       0       0       0       0       0       0
      Temps:          0       0       0       0       0       0       0       0       0       0       0       0       0       0       0       0
      Totals:         0       1       0       0       0       0       0       0       0       0       0       0       0       0       0       0
Total ram usage:        1 bytes
 Hardware stack levels used:    1
 Hardware stack levels required when called:    7
 This function calls:
		_PHYGetLongRAMAddr
		_PHYGetShortRAMAddr
		_PHYSetShortRAMAddr
 This function is called by:
		_MiMAC_Init
 This function uses a non-reentrant model


 *************** function _InitMRF24J40 *****************
 Defined at:
		line 267 in file "../../../../../../framework/driver/mrf_miwi/src/drv_mrf_miwi_mesh_24j40.c"
 Parameters:    Size  Location     Type
		None
 Auto vars:     Size  Location     Type
  j               2   12[BANK0 ] unsigned int 
  i               1   11[BANK0 ] unsigned char 
 Return value:  Size  Location     Type
                  1    wreg      void 
 Registers used:
		wreg, fsr2l, fsr2h, status,2, status,0, prodl, prodh, cstack
 Tracked objects:
		On entry : 
		On exit  : 
		Unchanged: 
 Data sizes:     COMRAM   BANK0   BANK1   BANK2   BANK3   BANK4   BANK5   BANK6   BANK7   BANK8   BANK9  BANK10  BANK11  BANK12  BANK13  BANK14
      Params:         0       0       0       0       0       0       0       0       0       0       0       0       0       0       0       0
      Locals:         0       3       0       0       0       0       0       0       0       0       0       0       0       0       0       0
      Temps:          0       1       0       0       0       0       0       0       0       0       0       0       0       0       0       0
      Totals:         0       4       0       0       0       0       0       0       0       0       0       0       0       0       0       0
Total ram usage:        4 bytes
 Hardware stack levels used:    1
 Hardware stack levels required when called:    7
 This function calls:
		_MiMAC_SetChannel
		_PHYGetLongRAMAddr
		_PHYGetShortRAMAddr
		_PHYSetLongRAMAddr
		_PHYSetShortRAMAddr
 This function is called by:
		_MiMAC_SendPacket
		_MiMAC_PowerState
		_MiMAC_Init
 This function uses a non-reentrant model


 *************** function _PHYGetShortRAMAddr *****************
 Defined at:
		line 220 in file "../../../../../../framework/driver/mrf_miwi/src/drv_mrf_miwi_mesh_24j40.c"
 Parameters:    Size  Location     Type
  address         1    wreg     unsigned char 
 Auto vars:     Size  Location     Type
  address         1    2[BANK0 ] unsigned char 
  tmpRFIE         1    4[BANK0 ] volatile unsigned char 
  toReturn        1    3[BANK0 ] unsigned char 
 Return value:  Size  Location     Type
                  1    wreg      unsigned char 
 Registers used:
		wreg, status,2, cstack
 Tracked objects:
		On entry : 
		On exit  : 
		Unchanged: 
 Data sizes:     COMRAM   BANK0   BANK1   BANK2   BANK3   BANK4   BANK5   BANK6   BANK7   BANK8   BANK9  BANK10  BANK11  BANK12  BANK13  BANK14
      Params:         0       0       0       0       0       0       0       0       0       0       0       0       0       0       0       0
      Locals:         0       3       0       0       0       0       0       0       0       0       0       0       0       0       0       0
      Temps:          0       0       0       0       0       0       0       0       0       0       0       0       0       0       0       0
      Totals:         0       3       0       0       0       0       0       0       0       0       0       0       0       0       0       0
Total ram usage:        3 bytes
 Hardware stack levels used:    1
 Hardware stack levels required when called:    6
 This function calls:
		_SPIGet
		_SPIPut
 This function is called by:
		_InitMRF24J40
		_MiMAC_ChannelAssessment
		_MiMAC_PowerState
 This function uses a non-reentrant model


 *************** function _PHYGetLongRAMAddr *****************
 Defined at:
		line 251 in file "../../../../../../framework/driver/mrf_miwi/src/drv_mrf_miwi_mesh_24j40.c"
 Parameters:    Size  Location     Type
  address         2    2[BANK0 ] unsigned int 
 Auto vars:     Size  Location     Type
  tmpRFIE         1    7[BANK0 ] volatile unsigned char 
  toReturn        1    6[BANK0 ] unsigned char 
 Return value:  Size  Location     Type
                  1    wreg      unsigned char 
 Registers used:
		wreg, status,2, status,0, cstack
 Tracked objects:
		On entry : 
		On exit  : 
		Unchanged: 
 Data sizes:     COMRAM   BANK0   BANK1   BANK2   BANK3   BANK4   BANK5   BANK6   BANK7   BANK8   BANK9  BANK10  BANK11  BANK12  BANK13  BANK14
      Params:         0       2       0       0       0       0       0       0       0       0       0       0       0       0       0       0
      Locals:         0       2       0       0       0       0       0       0       0       0       0       0       0       0       0       0
      Temps:          0       2       0       0       0       0       0       0       0       0       0       0       0       0       0       0
      Totals:         0       6       0       0       0       0       0       0       0       0       0       0       0       0       0       0
Total ram usage:        6 bytes
 Hardware stack levels used:    1
 Hardware stack levels required when called:    6
 This function calls:
		_SPIGet
		_SPIPut
 This function is called by:
		_InitMRF24J40
		_MiMAC_ChannelAssessment
		_MiMAC_PowerState
 This function uses a non-reentrant model


 *************** function _SPIGet *****************
 Defined at:
		line 282 in file "../src/system_config/miwikit_pic18f46j50_24j40/spi.c"
 Parameters:    Size  Location     Type
		None
 Auto vars:     Size  Location     Type
		None
 Return value:  Size  Location     Type
                  1    wreg      unsigned char 
 Registers used:
		wreg, status,2, cstack
 Tracked objects:
		On entry : 
		On exit  : 
		Unchanged: 
 Data sizes:     COMRAM   BANK0   BANK1   BANK2   BANK3   BANK4   BANK5   BANK6   BANK7   BANK8   BANK9  BANK10  BANK11  BANK12  BANK13  BANK14
      Params:         0       0       0       0       0       0       0       0       0       0       0       0       0       0       0       0
      Locals:         0       0       0       0       0       0       0       0       0       0       0       0       0       0       0       0
      Temps:          0       0       0       0       0       0       0       0       0       0       0       0       0       0       0       0
      Totals:         0       0       0       0       0       0       0       0       0       0       0       0       0       0       0       0
Total ram usage:        0 bytes
 Hardware stack levels used:    1
 Hardware stack levels required when called:    5
 This function calls:
		_SPIPut
 This function is called by:
		_PHYGetShortRAMAddr
		_PHYGetLongRAMAddr
 This function uses a non-reentrant model


 *************** function _MiApp_IsMemberOfNetwork *****************
 Defined at:
		line 281 in file "../src/Bridge.c"
 Parameters:    Size  Location     Type
		None
 Auto vars:     Size  Location     Type
		None
 Return value:  Size  Location     Type
                  1    wreg      unsigned char 
 Registers used:
		wreg, fsr0l, fsr0h, fsr1l, fsr1h, fsr2l, fsr2h, status,2, status,0, tblptrl, tblptrh, tblptru, cstack
 Tracked objects:
		On entry : 
		On exit  : 
		Unchanged: 
 Data sizes:     COMRAM   BANK0   BANK1   BANK2   BANK3   BANK4   BANK5   BANK6   BANK7   BANK8   BANK9  BANK10  BANK11  BANK12  BANK13  BANK14
      Params:         0       0       0       0       0       0       0       0       0       0       0       0       0       0       0       0
      Locals:         0       0       0       0       0       0       0       0       0       0       0       0       0       0       0       0
      Temps:          0       0       0       0       0       0       0       0       0       0       0       0       0       0       0       0
      Totals:         0       0       0       0       0       0       0       0       0       0       0       0       0       0       0       0
Total ram usage:        0 bytes
 Hardware stack levels used:    1
 Hardware stack levels required when called:    9
 This function calls:
		_IsMemberOfNetwork
 This function is called by:
		_main
 This function uses a non-reentrant model


 *************** function _IsMemberOfNetwork *****************
 Defined at:
		line 380 in file "../NetworkManager.c"
 Parameters:    Size  Location     Type
		None
 Auto vars:     Size  Location     Type
		None
 Return value:  Size  Location     Type
                  1    wreg      unsigned char 
 Registers used:
		wreg, fsr0l, fsr0h, fsr1l, fsr1h, fsr2l, fsr2h, status,2, status,0, tblptrl, tblptrh, tblptru, cstack
 Tracked objects:
		On entry : 
		On exit  : 
		Unchanged: 
 Data sizes:     COMRAM   BANK0   BANK1   BANK2   BANK3   BANK4   BANK5   BANK6   BANK7   BANK8   BANK9  BANK10  BANK11  BANK12  BANK13  BANK14
      Params:         0       0       0       0       0       0       0       0       0       0       0       0       0       0       0       0
      Locals:         0       0       0       0       0       0       0       0       0       0       0       0       0       0       0       0
      Temps:          0       0       0       0       0       0       0       0       0       0       0       0       0       0       0       0
      Totals:         0       0       0       0       0       0       0       0       0       0       0       0       0       0       0       0
Total ram usage:        0 bytes
 Hardware stack levels used:    1
 Hardware stack levels required when called:    8
 This function calls:
		_NetworkHasRoute
 This function is called by:
		_MiApp_IsMemberOfNetwork
		_radioReceivedPacket
 This function uses a non-reentrant model


 *************** function _NetworkHasRoute *****************
 Defined at:
		line 209 in file "../NetworkManager.c"
 Parameters:    Size  Location     Type
		None
 Auto vars:     Size  Location     Type
  res             1   34[BANK0 ] unsigned char 
 Return value:  Size  Location     Type
                  1    wreg      unsigned char 
 Registers used:
		wreg, fsr0l, fsr0h, fsr1l, fsr1h, fsr2l, fsr2h, status,2, status,0, tblptrl, tblptrh, tblptru, cstack
 Tracked objects:
		On entry : 
		On exit  : 
		Unchanged: 
 Data sizes:     COMRAM   BANK0   BANK1   BANK2   BANK3   BANK4   BANK5   BANK6   BANK7   BANK8   BANK9  BANK10  BANK11  BANK12  BANK13  BANK14
      Params:         0       0       0       0       0       0       0       0       0       0       0       0       0       0       0       0
      Locals:         0       2       0       0       0       0       0       0       0       0       0       0       0       0       0       0
      Temps:          0       0       0       0       0       0       0       0       0       0       0       0       0       0       0       0
      Totals:         0       2       0       0       0       0       0       0       0       0       0       0       0       0       0       0
Total ram usage:        2 bytes
 Hardware stack levels used:    1
 Hardware stack levels required when called:    7
 This function calls:
		_NetworkGetDeviceType
		_isInvalidAddress
 This function is called by:
		_networkSendBeacon
		_TransportManagerTask
		_TMSendFormedPacketTowardsCoordinator
		_IsMemberOfNetwork
 This function uses a non-reentrant model


 *************** function _isInvalidAddress *****************
 Defined at:
		line 230 in file "../NetworkManager.c"
 Parameters:    Size  Location     Type
  address         8   25[BANK0 ] struct addr_t_def
 Auto vars:     Size  Location     Type
		None
 Return value:  Size  Location     Type
                  1    wreg      unsigned char 
 Registers used:
		wreg, fsr0l, fsr0h, fsr1l, fsr1h, fsr2l, fsr2h, status,2, status,0, tblptrl, tblptrh, tblptru, cstack
 Tracked objects:
		On entry : 
		On exit  : 
		Unchanged: 
 Data sizes:     COMRAM   BANK0   BANK1   BANK2   BANK3   BANK4   BANK5   BANK6   BANK7   BANK8   BANK9  BANK10  BANK11  BANK12  BANK13  BANK14
      Params:         0       8       0       0       0       0       0       0       0       0       0       0       0       0       0       0
      Locals:         0       0       0       0       0       0       0       0       0       0       0       0       0       0       0       0
      Temps:          0       0       0       0       0       0       0       0       0       0       0       0       0       0       0       0
      Totals:         0       8       0       0       0       0       0       0       0       0       0       0       0       0       0       0
Total ram usage:        8 bytes
 Hardware stack levels used:    1
 Hardware stack levels required when called:    6
 This function calls:
		_isBroadcastAddress
 This function is called by:
		_RouteManagerPerformUpdate
		_routingTableFind
		_RouteManagerProcessReceive
		_RouteManagerShouldInsert
		_networkSendBeacon
		_NetworkManagerTask
		_NetworkHasRoute
		_NetworkManagerProcessIncomingData
		_IsNetworkDevice
 This function uses a non-reentrant model


 *************** function _isBroadcastAddress *****************
 Defined at:
		line 222 in file "../NetworkManager.c"
 Parameters:    Size  Location     Type
  address         8    8[BANK0 ] struct addr_t_def
 Auto vars:     Size  Location     Type
  addr            8   16[BANK0 ] const unsigned char [8]
  res             1   24[BANK0 ] unsigned char 
 Return value:  Size  Location     Type
                  1    wreg      unsigned char 
 Registers used:
		wreg, fsr1l, fsr1h, fsr2l, fsr2h, status,2, status,0, tblptrl, tblptrh, tblptru, cstack
 Tracked objects:
		On entry : 
		On exit  : 
		Unchanged: 
 Data sizes:     COMRAM   BANK0   BANK1   BANK2   BANK3   BANK4   BANK5   BANK6   BANK7   BANK8   BANK9  BANK10  BANK11  BANK12  BANK13  BANK14
      Params:         0       8       0       0       0       0       0       0       0       0       0       0       0       0       0       0
      Locals:         0       9       0       0       0       0       0       0       0       0       0       0       0       0       0       0
      Temps:          0       0       0       0       0       0       0       0       0       0       0       0       0       0       0       0
      Totals:         0      17       0       0       0       0       0       0       0       0       0       0       0       0       0       0
Total ram usage:       17 bytes
 Hardware stack levels used:    1
 Hardware stack levels required when called:    5
 This function calls:
		_NetworkAddressSizeGet
		_memcmp
 This function is called by:
		_radioReceivedPacket
		_TMSendFormedPacketToRFD
		_isInvalidAddress
 This function uses a non-reentrant model


 *************** function _memcmp *****************
 Defined at:
		line 3 in file "C:\Program Files (x86)\Microchip\xc8\v1.38\sources\common\memcmp.c"
 Parameters:    Size  Location     Type
  s1              2    0[BANK0 ] PTR const void 
		 -> a1.bytes(8), isSameAddress@a1(8), address.bytes(8), isBroadcastAddress@address(8), 
		 -> hc_table(360), src.bytes(8), main@src(8), 
  s2              2    2[BANK0 ] PTR const void 
		 -> a2.bytes(8), isSameAddress@a2(8), isBroadcastAddress@addr(8), isKnownPacket@zeros(12), 
		 -> src1.bytes(8), main@src1(8), 
  n               2    4[BANK0 ] unsigned int 
 Auto vars:     Size  Location     Type
		None
 Return value:  Size  Location     Type
                  2    0[BANK0 ] int 
 Registers used:
		wreg, fsr1l, fsr1h, fsr2l, fsr2h, status,2, status,0
 Tracked objects:
		On entry : 
		On exit  : 
		Unchanged: 
 Data sizes:     COMRAM   BANK0   BANK1   BANK2   BANK3   BANK4   BANK5   BANK6   BANK7   BANK8   BANK9  BANK10  BANK11  BANK12  BANK13  BANK14
      Params:         0       6       0       0       0       0       0       0       0       0       0       0       0       0       0       0
      Locals:         0       0       0       0       0       0       0       0       0       0       0       0       0       0       0       0
      Temps:          0       2       0       0       0       0       0       0       0       0       0       0       0       0       0       0
      Totals:         0       8       0       0       0       0       0       0       0       0       0       0       0       0       0       0
Total ram usage:        8 bytes
 Hardware stack levels used:    1
 Hardware stack levels required when called:    4
 This function calls:
		Nothing
 This function is called by:
		_main
		_isKnownPacket
		_isBroadcastAddress
		_isSameAddress
 This function uses a non-reentrant model


 *************** function _MiApp_GetParentAddress *****************
 Defined at:
		line 286 in file "../src/Bridge.c"
 Parameters:    Size  Location     Type
		None
 Auto vars:     Size  Location     Type
		None
 Return value:  Size  Location     Type
                  8    8[BANK0 ] struct addr_t_def
 Registers used:
		wreg, fsr0l, fsr0h, fsr2l, fsr2h, status,2, status,0, cstack
 Tracked objects:
		On entry : 
		On exit  : 
		Unchanged: 
 Data sizes:     COMRAM   BANK0   BANK1   BANK2   BANK3   BANK4   BANK5   BANK6   BANK7   BANK8   BANK9  BANK10  BANK11  BANK12  BANK13  BANK14
      Params:         0       8       0       0       0       0       0       0       0       0       0       0       0       0       0       0
      Locals:         0       0       0       0       0       0       0       0       0       0       0       0       0       0       0       0
      Temps:          0       0       0       0       0       0       0       0       0       0       0       0       0       0       0       0
      Totals:         0       8       0       0       0       0       0       0       0       0       0       0       0       0       0       0
Total ram usage:        8 bytes
 Hardware stack levels used:    1
 Hardware stack levels required when called:    5
 This function calls:
		_NetworkGetParentAddress
 This function is called by:
		_main
 This function uses a non-reentrant model


 *************** function _NetworkGetParentAddress *****************
 Defined at:
		line 250 in file "../NetworkManager.c"
 Parameters:    Size  Location     Type
		None
 Auto vars:     Size  Location     Type
		None
 Return value:  Size  Location     Type
                  8    0[BANK0 ] struct addr_t_def
 Registers used:
		wreg, fsr0l, fsr0h, fsr2l, fsr2h, status,2, status,0
 Tracked objects:
		On entry : 
		On exit  : 
		Unchanged: 
 Data sizes:     COMRAM   BANK0   BANK1   BANK2   BANK3   BANK4   BANK5   BANK6   BANK7   BANK8   BANK9  BANK10  BANK11  BANK12  BANK13  BANK14
      Params:         0       8       0       0       0       0       0       0       0       0       0       0       0       0       0       0
      Locals:         0       0       0       0       0       0       0       0       0       0       0       0       0       0       0       0
      Temps:          0       0       0       0       0       0       0       0       0       0       0       0       0       0       0       0
      Totals:         0       8       0       0       0       0       0       0       0       0       0       0       0       0       0       0
Total ram usage:        8 bytes
 Hardware stack levels used:    1
 Hardware stack levels required when called:    4
 This function calls:
		Nothing
 This function is called by:
		_MiApp_GetParentAddress
		_radioReceivedPacket
		_RouteManagerShouldInsert
		_le_findWorstNeighborIdx
		_le_findRandomNeighborIdx
		_TransportManagerTask
		_TMSendFormedPacketToRFD
		_NetworkManagerTask
		_NetworkPrepareSendPacket
		_NetworkIssueDataRequest
 This function uses a non-reentrant model


 *************** function _MiApp_EstablishConnection *****************
 Defined at:
		line 186 in file "../src/Bridge.c"
 Parameters:    Size  Location     Type
  ActiveScanIn    1    wreg     unsigned char 
  Mode            1   45[BANK0 ] unsigned char 
 Auto vars:     Size  Location     Type
  ActiveScanIn    1   55[BANK0 ] unsigned char 
  src             8   47[BANK0 ] struct addr_t_def
  dev             1   46[BANK0 ] enum E8168
 Return value:  Size  Location     Type
                  1    wreg      unsigned char 
 Registers used:
		wreg, fsr0l, fsr0h, fsr1l, fsr1h, fsr2l, fsr2h, status,2, status,0, prodl, prodh, cstack
 Tracked objects:
		On entry : 
		On exit  : 
		Unchanged: 
 Data sizes:     COMRAM   BANK0   BANK1   BANK2   BANK3   BANK4   BANK5   BANK6   BANK7   BANK8   BANK9  BANK10  BANK11  BANK12  BANK13  BANK14
      Params:         0       1       0       0       0       0       0       0       0       0       0       0       0       0       0       0
      Locals:         0      10       0       0       0       0       0       0       0       0       0       0       0       0       0       0
      Temps:          0       0       0       0       0       0       0       0       0       0       0       0       0       0       0       0
      Totals:         0      11       0       0       0       0       0       0       0       0       0       0       0       0       0       0
Total ram usage:       11 bytes
 Hardware stack levels used:    1
 Hardware stack levels required when called:   11
 This function calls:
		_MiApp_SetAddressPan
		_MiApp_SetChannel
		_NetworkInit
		_memcpy
 This function is called by:
		_main
 This function uses a non-reentrant model


 *************** function _NetworkInit *****************
 Defined at:
		line 166 in file "../NetworkManager.c"
 Parameters:    Size  Location     Type
  address         8   32[BANK0 ] struct addr_t_def
  PANID           2   40[BANK0 ] unsigned int 
  dev             1   42[BANK0 ] enum E145
 Auto vars:     Size  Location     Type
  devPanID        2   43[BANK0 ] unsigned int 
 Return value:  Size  Location     Type
                  1    wreg      void 
 Registers used:
		wreg, fsr0l, fsr0h, fsr1l, fsr1h, fsr2l, fsr2h, status,2, status,0, cstack
 Tracked objects:
		On entry : 
		On exit  : 
		Unchanged: 
 Data sizes:     COMRAM   BANK0   BANK1   BANK2   BANK3   BANK4   BANK5   BANK6   BANK7   BANK8   BANK9  BANK10  BANK11  BANK12  BANK13  BANK14
      Params:         0      11       0       0       0       0       0       0       0       0       0       0       0       0       0       0
      Locals:         0       2       0       0       0       0       0       0       0       0       0       0       0       0       0       0
      Temps:          0       0       0       0       0       0       0       0       0       0       0       0       0       0       0       0
      Totals:         0      13       0       0       0       0       0       0       0       0       0       0       0       0       0       0
Total ram usage:       13 bytes
 Hardware stack levels used:    1
 Hardware stack levels required when called:   10
 This function calls:
		_BeaconManagerInit
		_BroadcastManagerInit
		_CacheInit
		_DeviceManagerInit
		_LinkEstimatorInit
		_NetworkAddressSizeGet
		_NetworkSetAddressPAN
		_RouteManagerInit
		_TransportManagerInit
		_TunnelManagerInit
		_krnd
		_memcpy
		_memset
 This function is called by:
		_MiApp_EstablishConnection
 This function uses a non-reentrant model


 *************** function _TunnelManagerInit *****************
 Defined at:
		line 112 in file "../TunnelManager.c"
 Parameters:    Size  Location     Type
		None
 Auto vars:     Size  Location     Type
		None
 Return value:  Size  Location     Type
                  1    wreg      void 
 Registers used:
		wreg, fsr2l, fsr2h, status,2, status,0, cstack
 Tracked objects:
		On entry : 
		On exit  : 
		Unchanged: 
 Data sizes:     COMRAM   BANK0   BANK1   BANK2   BANK3   BANK4   BANK5   BANK6   BANK7   BANK8   BANK9  BANK10  BANK11  BANK12  BANK13  BANK14
      Params:         0       0       0       0       0       0       0       0       0       0       0       0       0       0       0       0
      Locals:         0       0       0       0       0       0       0       0       0       0       0       0       0       0       0       0
      Temps:          0       0       0       0       0       0       0       0       0       0       0       0       0       0       0       0
      Totals:         0       0       0       0       0       0       0       0       0       0       0       0       0       0       0       0
Total ram usage:        0 bytes
 Hardware stack levels used:    1
 Hardware stack levels required when called:    5
 This function calls:
		_memset
 This function is called by:
		_NetworkInit
 This function uses a non-reentrant model


 *************** function _TransportManagerInit *****************
 Defined at:
		line 54 in file "../TransportManager.c"
 Parameters:    Size  Location     Type
		None
 Auto vars:     Size  Location     Type
		None
 Return value:  Size  Location     Type
                  1    wreg      void 
 Registers used:
		wreg, fsr2l, fsr2h, status,2, status,0, cstack
 Tracked objects:
		On entry : 
		On exit  : 
		Unchanged: 
 Data sizes:     COMRAM   BANK0   BANK1   BANK2   BANK3   BANK4   BANK5   BANK6   BANK7   BANK8   BANK9  BANK10  BANK11  BANK12  BANK13  BANK14
      Params:         0       0       0       0       0       0       0       0       0       0       0       0       0       0       0       0
      Locals:         0       0       0       0       0       0       0       0       0       0       0       0       0       0       0       0
      Temps:          0       0       0       0       0       0       0       0       0       0       0       0       0       0       0       0
      Totals:         0       0       0       0       0       0       0       0       0       0       0       0       0       0       0       0
Total ram usage:        0 bytes
 Hardware stack levels used:    1
 Hardware stack levels required when called:    5
 This function calls:
		_memset
 This function is called by:
		_NetworkInit
 This function uses a non-reentrant model


 *************** function _RouteManagerInit *****************
 Defined at:
		line 29 in file "../RouteManager.c"
 Parameters:    Size  Location     Type
		None
 Auto vars:     Size  Location     Type
		None
 Return value:  Size  Location     Type
                  1    wreg      void 
 Registers used:
		wreg, fsr0l, fsr0h, fsr1l, fsr1h, fsr2l, fsr2h, status,2, status,0, cstack
 Tracked objects:
		On entry : 
		On exit  : 
		Unchanged: 
 Data sizes:     COMRAM   BANK0   BANK1   BANK2   BANK3   BANK4   BANK5   BANK6   BANK7   BANK8   BANK9  BANK10  BANK11  BANK12  BANK13  BANK14
      Params:         0       0       0       0       0       0       0       0       0       0       0       0       0       0       0       0
      Locals:         0       0       0       0       0       0       0       0       0       0       0       0       0       0       0       0
      Temps:          0       0       0       0       0       0       0       0       0       0       0       0       0       0       0       0
      Totals:         0       0       0       0       0       0       0       0       0       0       0       0       0       0       0       0
Total ram usage:        0 bytes
 Hardware stack levels used:    1
 Hardware stack levels required when called:    7
 This function calls:
		_MSTickGet
		_memset
 This function is called by:
		_NetworkInit
 This function uses a non-reentrant model


 *************** function _LinkEstimatorInit *****************
 Defined at:
		line 46 in file "../LinkEstimator.c"
 Parameters:    Size  Location     Type
		None
 Auto vars:     Size  Location     Type
		None
 Return value:  Size  Location     Type
                  1    wreg      void 
 Registers used:
		None
 Tracked objects:
		On entry : 
		On exit  : 
		Unchanged: 
 Data sizes:     COMRAM   BANK0   BANK1   BANK2   BANK3   BANK4   BANK5   BANK6   BANK7   BANK8   BANK9  BANK10  BANK11  BANK12  BANK13  BANK14
      Params:         0       0       0       0       0       0       0       0       0       0       0       0       0       0       0       0
      Locals:         0       0       0       0       0       0       0       0       0       0       0       0       0       0       0       0
      Temps:          0       0       0       0       0       0       0       0       0       0       0       0       0       0       0       0
      Totals:         0       0       0       0       0       0       0       0       0       0       0       0       0       0       0       0
Total ram usage:        0 bytes
 Hardware stack levels used:    1
 Hardware stack levels required when called:    4
 This function calls:
		Nothing
 This function is called by:
		_NetworkInit
 This function uses a non-reentrant model


 *************** function _DeviceManagerInit *****************
 Defined at:
		line 86 in file "../DeviceManager.c"
 Parameters:    Size  Location     Type
		None
 Auto vars:     Size  Location     Type
		None
 Return value:  Size  Location     Type
                  1    wreg      void 
 Registers used:
		wreg, fsr2l, fsr2h, status,2, status,0, cstack
 Tracked objects:
		On entry : 
		On exit  : 
		Unchanged: 
 Data sizes:     COMRAM   BANK0   BANK1   BANK2   BANK3   BANK4   BANK5   BANK6   BANK7   BANK8   BANK9  BANK10  BANK11  BANK12  BANK13  BANK14
      Params:         0       0       0       0       0       0       0       0       0       0       0       0       0       0       0       0
      Locals:         0       0       0       0       0       0       0       0       0       0       0       0       0       0       0       0
      Temps:          0       0       0       0       0       0       0       0       0       0       0       0       0       0       0       0
      Totals:         0       0       0       0       0       0       0       0       0       0       0       0       0       0       0       0
Total ram usage:        0 bytes
 Hardware stack levels used:    1
 Hardware stack levels required when called:    5
 This function calls:
		_memset
 This function is called by:
		_NetworkInit
 This function uses a non-reentrant model


 *************** function _CacheInit *****************
 Defined at:
		line 72 in file "../Cache.c"
 Parameters:    Size  Location     Type
		None
 Auto vars:     Size  Location     Type
		None
 Return value:  Size  Location     Type
                  1    wreg      void 
 Registers used:
		wreg, fsr2l, fsr2h, status,2, status,0, cstack
 Tracked objects:
		On entry : 
		On exit  : 
		Unchanged: 
 Data sizes:     COMRAM   BANK0   BANK1   BANK2   BANK3   BANK4   BANK5   BANK6   BANK7   BANK8   BANK9  BANK10  BANK11  BANK12  BANK13  BANK14
      Params:         0       0       0       0       0       0       0       0       0       0       0       0       0       0       0       0
      Locals:         0       0       0       0       0       0       0       0       0       0       0       0       0       0       0       0
      Temps:          0       0       0       0       0       0       0       0       0       0       0       0       0       0       0       0
      Totals:         0       0       0       0       0       0       0       0       0       0       0       0       0       0       0       0
Total ram usage:        0 bytes
 Hardware stack levels used:    1
 Hardware stack levels required when called:    5
 This function calls:
		_memset
 This function is called by:
		_NetworkInit
 This function uses a non-reentrant model


 *************** function _BroadcastManagerInit *****************
 Defined at:
		line 24 in file "../BroadcastManager.c"
 Parameters:    Size  Location     Type
		None
 Auto vars:     Size  Location     Type
		None
 Return value:  Size  Location     Type
                  1    wreg      void 
 Registers used:
		wreg, fsr2l, fsr2h, status,2, status,0, cstack
 Tracked objects:
		On entry : 
		On exit  : 
		Unchanged: 
 Data sizes:     COMRAM   BANK0   BANK1   BANK2   BANK3   BANK4   BANK5   BANK6   BANK7   BANK8   BANK9  BANK10  BANK11  BANK12  BANK13  BANK14
      Params:         0       0       0       0       0       0       0       0       0       0       0       0       0       0       0       0
      Locals:         0       0       0       0       0       0       0       0       0       0       0       0       0       0       0       0
      Temps:          0       0       0       0       0       0       0       0       0       0       0       0       0       0       0       0
      Totals:         0       0       0       0       0       0       0       0       0       0       0       0       0       0       0       0
Total ram usage:        0 bytes
 Hardware stack levels used:    1
 Hardware stack levels required when called:    5
 This function calls:
		_memset
 This function is called by:
		_NetworkInit
 This function uses a non-reentrant model


 *************** function _memset *****************
 Defined at:
		line 8 in file "C:\Program Files (x86)\Microchip\xc8\v1.38\sources\common\memset.c"
 Parameters:    Size  Location     Type
  p1              2    0[BANK0 ] PTR void 
		 -> Tick_MS(8), list(340), IsNetworkDevice@oldest(8), NetworkSendDiscoverResponse@address(8), 
		 -> NetworkSendDiscoverRequest@address(8), CoordinatorGenericAddress@address(8), routeInfo.parent(8), CoordinatorAddr(8), 
		 -> routeInfo(13), TMQ(152), hc_table(360), isKnownPacket@zeros(12), 
		 -> isKnownPacket@OldestTick(8), TunnelManagerGetTunnel@retAddr(8), tunnels(240), TunnelManagerSetTunnel@OldestTick(8), 
		 -> RbcQ(444), beaconMessageBuffer(84), RoutingTableFindDeviceOrParent@res(8), NewBestParent(8), 
		 -> NetworkBroadcastData@address(8), ActiveScanResults(25), ConnectionTable(85), radioBroadcast@addr(8), 
		 -> NULL(0), main@coord(8), rxMessage(10), LCDText(33), 
  c               2    2[BANK0 ] int 
  n               2    4[BANK0 ] unsigned int 
 Auto vars:     Size  Location     Type
  p               2    6[BANK0 ] PTR unsigned char 
		 -> Tick_MS(8), list(340), IsNetworkDevice@oldest(8), NetworkSendDiscoverResponse@address(8), 
		 -> NetworkSendDiscoverRequest@address(8), CoordinatorGenericAddress@address(8), routeInfo.parent(8), CoordinatorAddr(8), 
		 -> routeInfo(13), TMQ(152), hc_table(360), isKnownPacket@zeros(12), 
		 -> isKnownPacket@OldestTick(8), TunnelManagerGetTunnel@retAddr(8), tunnels(240), TunnelManagerSetTunnel@OldestTick(8), 
		 -> RbcQ(444), beaconMessageBuffer(84), RoutingTableFindDeviceOrParent@res(8), NewBestParent(8), 
		 -> NetworkBroadcastData@address(8), ActiveScanResults(25), ConnectionTable(85), radioBroadcast@addr(8), 
		 -> NULL(0), main@coord(8), rxMessage(10), LCDText(33), 
 Return value:  Size  Location     Type
                  2    0[BANK0 ] PTR void 
 Registers used:
		wreg, fsr2l, fsr2h, status,2, status,0
 Tracked objects:
		On entry : 
		On exit  : 
		Unchanged: 
 Data sizes:     COMRAM   BANK0   BANK1   BANK2   BANK3   BANK4   BANK5   BANK6   BANK7   BANK8   BANK9  BANK10  BANK11  BANK12  BANK13  BANK14
      Params:         0       6       0       0       0       0       0       0       0       0       0       0       0       0       0       0
      Locals:         0       2       0       0       0       0       0       0       0       0       0       0       0       0       0       0
      Temps:          0       0       0       0       0       0       0       0       0       0       0       0       0       0       0       0
      Totals:         0       8       0       0       0       0       0       0       0       0       0       0       0       0       0       0
Total ram usage:        8 bytes
 Hardware stack levels used:    1
 Hardware stack levels required when called:    4
 This function calls:
		Nothing
 This function is called by:
		_main
		_radioBroadcast
		_MiApp_ProtocolInit
		_NetworkDataArrivedEvent
		_AddNodeToNetworkTable
		_MiApp_SearchConnection
		_RouteManagerInit
		_routeInfoInit
		_RoutingTableFindDeviceOrParent
		_networkSendBeacon
		_BroadcastManagerInit
		_BroadcastManagerTask
		_TunnelManagerSetTunnel
		_TunnelManagerGetTunnel
		_TunnelManagerInvalidateTunnel
		_TunnelManagerInit
		_isKnownPacket
		_CacheInit
		_TransportManagerInit
		_NetworkInit
		_CoordinatorGenericAddress
		_NetworkSendDiscoverRequest
		_NetworkSendDiscoverResponse
		_IsNetworkDevice
		_DeviceManagerInit
		_NetworkBroadcastData
 This function uses a non-reentrant model


 *************** function _BeaconManagerInit *****************
 Defined at:
		line 37 in file "../BeaconManager.c"
 Parameters:    Size  Location     Type
		None
 Auto vars:     Size  Location     Type
		None
 Return value:  Size  Location     Type
                  1    wreg      void 
 Registers used:
		wreg, fsr0l, fsr0h, fsr1l, fsr1h, fsr2l, fsr2h, status,2, status,0, cstack
 Tracked objects:
		On entry : 
		On exit  : 
		Unchanged: 
 Data sizes:     COMRAM   BANK0   BANK1   BANK2   BANK3   BANK4   BANK5   BANK6   BANK7   BANK8   BANK9  BANK10  BANK11  BANK12  BANK13  BANK14
      Params:         0       0       0       0       0       0       0       0       0       0       0       0       0       0       0       0
      Locals:         0       0       0       0       0       0       0       0       0       0       0       0       0       0       0       0
      Temps:          0       0       0       0       0       0       0       0       0       0       0       0       0       0       0       0
      Totals:         0       0       0       0       0       0       0       0       0       0       0       0       0       0       0       0
Total ram usage:        0 bytes
 Hardware stack levels used:    1
 Hardware stack levels required when called:    9
 This function calls:
		_krnd
		_netResetInterval
 This function is called by:
		_NetworkInit
 This function uses a non-reentrant model


 *************** function _netResetInterval *****************
 Defined at:
		line 135 in file "../BeaconManager.c"
 Parameters:    Size  Location     Type
		None
 Auto vars:     Size  Location     Type
		None
 Return value:  Size  Location     Type
                  1    wreg      void 
 Registers used:
		wreg, fsr0l, fsr0h, fsr1l, fsr1h, fsr2l, fsr2h, status,2, status,0, cstack
 Tracked objects:
		On entry : 
		On exit  : 
		Unchanged: 
 Data sizes:     COMRAM   BANK0   BANK1   BANK2   BANK3   BANK4   BANK5   BANK6   BANK7   BANK8   BANK9  BANK10  BANK11  BANK12  BANK13  BANK14
      Params:         0       0       0       0       0       0       0       0       0       0       0       0       0       0       0       0
      Locals:         0       0       0       0       0       0       0       0       0       0       0       0       0       0       0       0
      Temps:          0       0       0       0       0       0       0       0       0       0       0       0       0       0       0       0
      Totals:         0       0       0       0       0       0       0       0       0       0       0       0       0       0       0       0
Total ram usage:        0 bytes
 Hardware stack levels used:    1
 Hardware stack levels required when called:    8
 This function calls:
		_netChooseAdvertiseTime
 This function is called by:
		_BeaconManagerInit
		_BeaconManagerTrigger
 This function uses a non-reentrant model


 *************** function _netChooseAdvertiseTime *****************
 Defined at:
		line 125 in file "../BeaconManager.c"
 Parameters:    Size  Location     Type
		None
 Auto vars:     Size  Location     Type
  t               4   28[BANK0 ] unsigned long 
 Return value:  Size  Location     Type
                  1    wreg      void 
 Registers used:
		wreg, fsr0l, fsr0h, fsr1l, fsr1h, fsr2l, fsr2h, status,2, status,0, cstack
 Tracked objects:
		On entry : 
		On exit  : 
		Unchanged: 
 Data sizes:     COMRAM   BANK0   BANK1   BANK2   BANK3   BANK4   BANK5   BANK6   BANK7   BANK8   BANK9  BANK10  BANK11  BANK12  BANK13  BANK14
      Params:         0       0       0       0       0       0       0       0       0       0       0       0       0       0       0       0
      Locals:         0       4       0       0       0       0       0       0       0       0       0       0       0       0       0       0
      Temps:          0       0       0       0       0       0       0       0       0       0       0       0       0       0       0       0
      Totals:         0       4       0       0       0       0       0       0       0       0       0       0       0       0       0       0
Total ram usage:        4 bytes
 Hardware stack levels used:    1
 Hardware stack levels required when called:    7
 This function calls:
		_MSTickGet
		___llmod
		_krnd
 This function is called by:
		_netResetInterval
		_netDecayInterval
 This function uses a non-reentrant model


 *************** function _krnd *****************
 Defined at:
		line 16 in file "../krnd.c"
 Parameters:    Size  Location     Type
		None
 Auto vars:     Size  Location     Type
  t               4    8[BANK0 ] long 
 Return value:  Size  Location     Type
                  4    0[BANK0 ] unsigned long 
 Registers used:
		wreg, status,2, status,0
 Tracked objects:
		On entry : 
		On exit  : 
		Unchanged: 
 Data sizes:     COMRAM   BANK0   BANK1   BANK2   BANK3   BANK4   BANK5   BANK6   BANK7   BANK8   BANK9  BANK10  BANK11  BANK12  BANK13  BANK14
      Params:         0       4       0       0       0       0       0       0       0       0       0       0       0       0       0       0
      Locals:         0       4       0       0       0       0       0       0       0       0       0       0       0       0       0       0
      Temps:          0       4       0       0       0       0       0       0       0       0       0       0       0       0       0       0
      Totals:         0      12       0       0       0       0       0       0       0       0       0       0       0       0       0       0
Total ram usage:       12 bytes
 Hardware stack levels used:    1
 Hardware stack levels required when called:    4
 This function calls:
		Nothing
 This function is called by:
		_MiMAC_Init
		_BeaconManagerInit
		_netChooseAdvertiseTime
		_le_findRandomNeighborIdx
		_BroadcastManagerDelaySend
		_NetworkManagerTask
		_NetworkInit
 This function uses a non-reentrant model


 *************** function ___llmod *****************
 Defined at:
		line 8 in file "C:\Program Files (x86)\Microchip\xc8\v1.38\sources\common\llmod.c"
 Parameters:    Size  Location     Type
  dividend        4   12[BANK0 ] unsigned long 
  divisor         4   16[BANK0 ] unsigned long 
 Auto vars:     Size  Location     Type
  counter         1   20[BANK0 ] unsigned char 
 Return value:  Size  Location     Type
                  4   12[BANK0 ] unsigned long 
 Registers used:
		wreg, status,2, status,0
 Tracked objects:
		On entry : 
		On exit  : 
		Unchanged: 
 Data sizes:     COMRAM   BANK0   BANK1   BANK2   BANK3   BANK4   BANK5   BANK6   BANK7   BANK8   BANK9  BANK10  BANK11  BANK12  BANK13  BANK14
      Params:         0       8       0       0       0       0       0       0       0       0       0       0       0       0       0       0
      Locals:         0       1       0       0       0       0       0       0       0       0       0       0       0       0       0       0
      Temps:          0       0       0       0       0       0       0       0       0       0       0       0       0       0       0       0
      Totals:         0       9       0       0       0       0       0       0       0       0       0       0       0       0       0       0
Total ram usage:        9 bytes
 Hardware stack levels used:    1
 Hardware stack levels required when called:    4
 This function calls:
		Nothing
 This function is called by:
		_netChooseAdvertiseTime
 This function uses a non-reentrant model


 *************** function _MSTickGet *****************
 Defined at:
		line 71 in file "../TimeTick.c"
 Parameters:    Size  Location     Type
		None
 Auto vars:     Size  Location     Type
  tNow            8   20[BANK0 ] struct TickMS_t_def
 Return value:  Size  Location     Type
                  8   12[BANK0 ] struct TickMS_t_def
 Registers used:
		wreg, fsr0l, fsr0h, fsr1l, fsr1h, fsr2l, fsr2h, status,2, status,0, cstack
 Tracked objects:
		On entry : 
		On exit  : 
		Unchanged: 
 Data sizes:     COMRAM   BANK0   BANK1   BANK2   BANK3   BANK4   BANK5   BANK6   BANK7   BANK8   BANK9  BANK10  BANK11  BANK12  BANK13  BANK14
      Params:         0       8       0       0       0       0       0       0       0       0       0       0       0       0       0       0
      Locals:         0       8       0       0       0       0       0       0       0       0       0       0       0       0       0       0
      Temps:          0       0       0       0       0       0       0       0       0       0       0       0       0       0       0       0
      Totals:         0      16       0       0       0       0       0       0       0       0       0       0       0       0       0       0
Total ram usage:       16 bytes
 Hardware stack levels used:    1
 Hardware stack levels required when called:    6
 This function calls:
		_TimerEnterCritical
		_TimerExitCritical
		_memcpy
 This function is called by:
		_RouteManagerInit
		_RouteManagerTask
		_BeaconManagerTask
		_netChooseAdvertiseTime
		_BroadcastManagerTask
		_BroadcastManagerDelaySend
		_TunnelManagerSetTunnel
		_isKnownPacket
		_TransportManagerTask
		_NetworkManagerTask
		_IsNetworkDevice
		_MSTickGetDiffNow
 This function uses a non-reentrant model


 *************** function _TimerExitCritical *****************
 Defined at:
		line 157 in file "../src/system_config/miwikit_pic18f46j50_24j40/symbol.c"
 Parameters:    Size  Location     Type
		None
 Auto vars:     Size  Location     Type
		None
 Return value:  Size  Location     Type
                  1    wreg      void 
 Registers used:
		cstack
 Tracked objects:
		On entry : 
		On exit  : 
		Unchanged: 
 Data sizes:     COMRAM   BANK0   BANK1   BANK2   BANK3   BANK4   BANK5   BANK6   BANK7   BANK8   BANK9  BANK10  BANK11  BANK12  BANK13  BANK14
      Params:         0       0       0       0       0       0       0       0       0       0       0       0       0       0       0       0
      Locals:         0       0       0       0       0       0       0       0       0       0       0       0       0       0       0       0
      Temps:          0       0       0       0       0       0       0       0       0       0       0       0       0       0       0       0
      Totals:         0       0       0       0       0       0       0       0       0       0       0       0       0       0       0       0
Total ram usage:        0 bytes
 Hardware stack levels used:    1
 Hardware stack levels required when called:    5
 This function calls:
		_TimerEnable
 This function is called by:
		_MSTickGet
 This function uses a non-reentrant model


 *************** function _TimerEnable *****************
 Defined at:
		line 147 in file "../src/system_config/miwikit_pic18f46j50_24j40/symbol.c"
 Parameters:    Size  Location     Type
		None
 Auto vars:     Size  Location     Type
		None
 Return value:  Size  Location     Type
                  1    wreg      void 
 Registers used:
		None
 Tracked objects:
		On entry : 
		On exit  : 
		Unchanged: 
 Data sizes:     COMRAM   BANK0   BANK1   BANK2   BANK3   BANK4   BANK5   BANK6   BANK7   BANK8   BANK9  BANK10  BANK11  BANK12  BANK13  BANK14
      Params:         0       0       0       0       0       0       0       0       0       0       0       0       0       0       0       0
      Locals:         0       0       0       0       0       0       0       0       0       0       0       0       0       0       0       0
      Temps:          0       0       0       0       0       0       0       0       0       0       0       0       0       0       0       0
      Totals:         0       0       0       0       0       0       0       0       0       0       0       0       0       0       0       0
Total ram usage:        0 bytes
 Hardware stack levels used:    1
 Hardware stack levels required when called:    4
 This function calls:
		Nothing
 This function is called by:
		_TimerExitCritical
 This function uses a non-reentrant model


 *************** function _TimerEnterCritical *****************
 Defined at:
		line 152 in file "../src/system_config/miwikit_pic18f46j50_24j40/symbol.c"
 Parameters:    Size  Location     Type
		None
 Auto vars:     Size  Location     Type
		None
 Return value:  Size  Location     Type
                  1    wreg      void 
 Registers used:
		cstack
 Tracked objects:
		On entry : 
		On exit  : 
		Unchanged: 
 Data sizes:     COMRAM   BANK0   BANK1   BANK2   BANK3   BANK4   BANK5   BANK6   BANK7   BANK8   BANK9  BANK10  BANK11  BANK12  BANK13  BANK14
      Params:         0       0       0       0       0       0       0       0       0       0       0       0       0       0       0       0
      Locals:         0       0       0       0       0       0       0       0       0       0       0       0       0       0       0       0
      Temps:          0       0       0       0       0       0       0       0       0       0       0       0       0       0       0       0
      Totals:         0       0       0       0       0       0       0       0       0       0       0       0       0       0       0       0
Total ram usage:        0 bytes
 Hardware stack levels used:    1
 Hardware stack levels required when called:    5
 This function calls:
		_TimerDisable
 This function is called by:
		_MSTickGet
 This function uses a non-reentrant model


 *************** function _TimerDisable *****************
 Defined at:
		line 143 in file "../src/system_config/miwikit_pic18f46j50_24j40/symbol.c"
 Parameters:    Size  Location     Type
		None
 Auto vars:     Size  Location     Type
		None
 Return value:  Size  Location     Type
                  1    wreg      void 
 Registers used:
		None
 Tracked objects:
		On entry : 
		On exit  : 
		Unchanged: 
 Data sizes:     COMRAM   BANK0   BANK1   BANK2   BANK3   BANK4   BANK5   BANK6   BANK7   BANK8   BANK9  BANK10  BANK11  BANK12  BANK13  BANK14
      Params:         0       0       0       0       0       0       0       0       0       0       0       0       0       0       0       0
      Locals:         0       0       0       0       0       0       0       0       0       0       0       0       0       0       0       0
      Temps:          0       0       0       0       0       0       0       0       0       0       0       0       0       0       0       0
      Totals:         0       0       0       0       0       0       0       0       0       0       0       0       0       0       0       0
Total ram usage:        0 bytes
 Hardware stack levels used:    1
 Hardware stack levels required when called:    4
 This function calls:
		Nothing
 This function is called by:
		_TimerEnterCritical
 This function uses a non-reentrant model


 *************** function _MiApp_SetChannel *****************
 Defined at:
		line 168 in file "../src/Bridge.c"
 Parameters:    Size  Location     Type
  Channel         1    wreg     unsigned char 
 Auto vars:     Size  Location     Type
  Channel         1   10[BANK0 ] unsigned char 
  res             1    0        unsigned char 
 Return value:  Size  Location     Type
                  1    wreg      unsigned char 
 Registers used:
		wreg, status,2, status,0, prodl, prodh, cstack
 Tracked objects:
		On entry : 
		On exit  : 
		Unchanged: 
 Data sizes:     COMRAM   BANK0   BANK1   BANK2   BANK3   BANK4   BANK5   BANK6   BANK7   BANK8   BANK9  BANK10  BANK11  BANK12  BANK13  BANK14
      Params:         0       0       0       0       0       0       0       0       0       0       0       0       0       0       0       0
      Locals:         0       2       0       0       0       0       0       0       0       0       0       0       0       0       0       0
      Temps:          0       0       0       0       0       0       0       0       0       0       0       0       0       0       0       0
      Totals:         0       2       0       0       0       0       0       0       0       0       0       0       0       0       0       0
Total ram usage:        2 bytes
 Hardware stack levels used:    1
 Hardware stack levels required when called:    7
 This function calls:
		_MiMAC_SetChannel
 This function is called by:
		_MiApp_EstablishConnection
		_MiApp_SearchConnection
 This function uses a non-reentrant model


 *************** function _MiMAC_SetChannel *****************
 Defined at:
		line 1378 in file "../../../../../../framework/driver/mrf_miwi/src/drv_mrf_miwi_mesh_24j40.c"
 Parameters:    Size  Location     Type
  channel         1    wreg     unsigned char 
  offsetFreq      1    8[BANK0 ] unsigned char 
 Auto vars:     Size  Location     Type
  channel         1    9[BANK0 ] unsigned char 
 Return value:  Size  Location     Type
                  1    wreg      unsigned char 
 Registers used:
		wreg, status,2, status,0, prodl, prodh, cstack
 Tracked objects:
		On entry : 
		On exit  : 
		Unchanged: 
 Data sizes:     COMRAM   BANK0   BANK1   BANK2   BANK3   BANK4   BANK5   BANK6   BANK7   BANK8   BANK9  BANK10  BANK11  BANK12  BANK13  BANK14
      Params:         0       1       0       0       0       0       0       0       0       0       0       0       0       0       0       0
      Locals:         0       1       0       0       0       0       0       0       0       0       0       0       0       0       0       0
      Temps:          0       0       0       0       0       0       0       0       0       0       0       0       0       0       0       0
      Totals:         0       2       0       0       0       0       0       0       0       0       0       0       0       0       0       0
Total ram usage:        2 bytes
 Hardware stack levels used:    1
 Hardware stack levels required when called:    6
 This function calls:
		_PHYSetLongRAMAddr
		_PHYSetShortRAMAddr
 This function is called by:
		_MiApp_SetChannel
		_InitMRF24J40
 This function uses a non-reentrant model


 *************** function _PHYSetLongRAMAddr *****************
 Defined at:
		line 156 in file "../../../../../../framework/driver/mrf_miwi/src/drv_mrf_miwi_mesh_24j40.c"
 Parameters:    Size  Location     Type
  address         2    2[BANK0 ] unsigned int 
  value           1    4[BANK0 ] unsigned char 
 Auto vars:     Size  Location     Type
  tmpRFIE         1    7[BANK0 ] volatile unsigned char 
 Return value:  Size  Location     Type
                  1    wreg      void 
 Registers used:
		wreg, status,2, status,0, cstack
 Tracked objects:
		On entry : 
		On exit  : 
		Unchanged: 
 Data sizes:     COMRAM   BANK0   BANK1   BANK2   BANK3   BANK4   BANK5   BANK6   BANK7   BANK8   BANK9  BANK10  BANK11  BANK12  BANK13  BANK14
      Params:         0       3       0       0       0       0       0       0       0       0       0       0       0       0       0       0
      Locals:         0       1       0       0       0       0       0       0       0       0       0       0       0       0       0       0
      Temps:          0       2       0       0       0       0       0       0       0       0       0       0       0       0       0       0
      Totals:         0       6       0       0       0       0       0       0       0       0       0       0       0       0       0       0
Total ram usage:        6 bytes
 Hardware stack levels used:    1
 Hardware stack levels required when called:    5
 This function calls:
		_SPIPut
 This function is called by:
		_InitMRF24J40
		_MiMAC_SendPacket
		_MiMAC_SetChannel
 This function uses a non-reentrant model


 *************** function _MiApp_SetAddressPan *****************
 Defined at:
		line 211 in file "../src/Bridge.c"
 Parameters:    Size  Location     Type
  address         2   22[BANK0 ] PTR unsigned char 
		 -> MiApp_EstablishConnection@src(8), myLongAddress(8), myAddr(8), 
  panid           2   24[BANK0 ] unsigned int 
 Auto vars:     Size  Location     Type
  addr            8   26[BANK0 ] struct addr_t_def
 Return value:  Size  Location     Type
                  1    wreg      void 
 Registers used:
		wreg, fsr0l, fsr0h, fsr1l, fsr1h, fsr2l, fsr2h, status,2, status,0, cstack
 Tracked objects:
		On entry : 
		On exit  : 
		Unchanged: 
 Data sizes:     COMRAM   BANK0   BANK1   BANK2   BANK3   BANK4   BANK5   BANK6   BANK7   BANK8   BANK9  BANK10  BANK11  BANK12  BANK13  BANK14
      Params:         0       4       0       0       0       0       0       0       0       0       0       0       0       0       0       0
      Locals:         0       8       0       0       0       0       0       0       0       0       0       0       0       0       0       0
      Temps:          0       0       0       0       0       0       0       0       0       0       0       0       0       0       0       0
      Totals:         0      12       0       0       0       0       0       0       0       0       0       0       0       0       0       0
Total ram usage:       12 bytes
 Hardware stack levels used:    1
 Hardware stack levels required when called:    7
 This function calls:
		_MiMAC_SetAltAddress
		_NetworkSetAddressPAN
		_memcpy
 This function is called by:
		_main
		_MiApp_ProtocolInit
		_MiApp_EstablishConnection
 This function uses a non-reentrant model


 *************** function _NetworkSetAddressPAN *****************
 Defined at:
		line 430 in file "../NetworkManager.c"
 Parameters:    Size  Location     Type
  address         8   12[BANK0 ] struct addr_t_def
  PANID           2   20[BANK0 ] unsigned int 
 Auto vars:     Size  Location     Type
		None
 Return value:  Size  Location     Type
                  1    wreg      void 
 Registers used:
		wreg, fsr1l, fsr1h, fsr2l, fsr2h, status,2, status,0, cstack
 Tracked objects:
		On entry : 
		On exit  : 
		Unchanged: 
 Data sizes:     COMRAM   BANK0   BANK1   BANK2   BANK3   BANK4   BANK5   BANK6   BANK7   BANK8   BANK9  BANK10  BANK11  BANK12  BANK13  BANK14
      Params:         0      10       0       0       0       0       0       0       0       0       0       0       0       0       0       0
      Locals:         0       0       0       0       0       0       0       0       0       0       0       0       0       0       0       0
      Temps:          0       0       0       0       0       0       0       0       0       0       0       0       0       0       0       0
      Totals:         0      10       0       0       0       0       0       0       0       0       0       0       0       0       0       0
Total ram usage:       10 bytes
 Hardware stack levels used:    1
 Hardware stack levels required when called:    5
 This function calls:
		_NetworkAddressSizeGet
		_NetworkGetDeviceType
		_memcpy
 This function is called by:
		_MiApp_SetAddressPan
		_NetworkInit
 This function uses a non-reentrant model


 *************** function _NetworkGetDeviceType *****************
 Defined at:
		line 204 in file "../NetworkManager.c"
 Parameters:    Size  Location     Type
		None
 Auto vars:     Size  Location     Type
		None
 Return value:  Size  Location     Type
                  1    wreg      enum E8168
 Registers used:
		wreg, status,2
 Tracked objects:
		On entry : 
		On exit  : 
		Unchanged: 
 Data sizes:     COMRAM   BANK0   BANK1   BANK2   BANK3   BANK4   BANK5   BANK6   BANK7   BANK8   BANK9  BANK10  BANK11  BANK12  BANK13  BANK14
      Params:         0       0       0       0       0       0       0       0       0       0       0       0       0       0       0       0
      Locals:         0       0       0       0       0       0       0       0       0       0       0       0       0       0       0       0
      Temps:          0       0       0       0       0       0       0       0       0       0       0       0       0       0       0       0
      Totals:         0       0       0       0       0       0       0       0       0       0       0       0       0       0       0       0
Total ram usage:        0 bytes
 Hardware stack levels used:    1
 Hardware stack levels required when called:    4
 This function calls:
		Nothing
 This function is called by:
		_radioReceivedPacket
		_NetworkUnicastData
		_RouteManagerPerformUpdate
		_networkSendBeacon
		_TMSendFormedPacketToRFD
		_NetworkManagerTask
		_NetworkHasRoute
		_NetworkManagerProcessIncomingData
		_NetworkPrepareSendPacket
		_NetworkSetAddressPAN
 This function uses a non-reentrant model


 *************** function _NetworkAddressSizeGet *****************
 Defined at:
		line 161 in file "../NetworkManager.c"
 Parameters:    Size  Location     Type
		None
 Auto vars:     Size  Location     Type
		None
 Return value:  Size  Location     Type
                  1    wreg      unsigned char 
 Registers used:
		wreg, status,2
 Tracked objects:
		On entry : 
		On exit  : 
		Unchanged: 
 Data sizes:     COMRAM   BANK0   BANK1   BANK2   BANK3   BANK4   BANK5   BANK6   BANK7   BANK8   BANK9  BANK10  BANK11  BANK12  BANK13  BANK14
      Params:         0       0       0       0       0       0       0       0       0       0       0       0       0       0       0       0
      Locals:         0       0       0       0       0       0       0       0       0       0       0       0       0       0       0       0
      Temps:          0       0       0       0       0       0       0       0       0       0       0       0       0       0       0       0
      Totals:         0       0       0       0       0       0       0       0       0       0       0       0       0       0       0       0
Total ram usage:        0 bytes
 Hardware stack levels used:    1
 Hardware stack levels required when called:    4
 This function calls:
		Nothing
 This function is called by:
		_routeInfoInit
		_RouteManagerProcessReceive
		_RoutingTableFindDeviceOrParent
		_networkSendBeacon
		_LEAppendNeighborInfo
		_LE_processReceivedMessage
		_TunnelManagerSetTunnel
		_TunnelManagerGetTunnel
		_TunnelManagerInvalidateTunnel
		_NetworkInit
		_isBroadcastAddress
		_isSameAddress
		_CoordinatorGenericAddress
		_NetworkPrepareSendPacket
		_NetworkSendDiscoverRequest
		_NetworkSendDiscoverResponse
		_NetworkSetAddressPAN
		_IsNetworkDevice
		_DeviceManagerBufferDeviceData
		_DeviceManagerGetDeviceData
		_NetworkBroadcastData
 This function uses a non-reentrant model


 *************** function _MiMAC_SetAltAddress *****************
 Defined at:
		line 1504 in file "../../../../../../framework/driver/mrf_miwi/src/drv_mrf_miwi_mesh_24j40.c"
 Parameters:    Size  Location     Type
  Address         2   12[BANK0 ] PTR unsigned char 
		 -> myNetworkAddress(2), myLongAddress(8), 
  PANID           1   14[BANK0 ] PTR unsigned char 
		 -> MAC_PANID(2), myPANID(2), 
 Auto vars:     Size  Location     Type
		None
 Return value:  Size  Location     Type
                  1    wreg      unsigned char 
 Registers used:
		wreg, fsr1l, fsr1h, fsr2l, fsr2h, status,2, status,0, cstack
 Tracked objects:
		On entry : 
		On exit  : 
		Unchanged: 
 Data sizes:     COMRAM   BANK0   BANK1   BANK2   BANK3   BANK4   BANK5   BANK6   BANK7   BANK8   BANK9  BANK10  BANK11  BANK12  BANK13  BANK14
      Params:         0       3       0       0       0       0       0       0       0       0       0       0       0       0       0       0
      Locals:         0       0       0       0       0       0       0       0       0       0       0       0       0       0       0       0
      Temps:          0       0       0       0       0       0       0       0       0       0       0       0       0       0       0       0
      Totals:         0       3       0       0       0       0       0       0       0       0       0       0       0       0       0       0
Total ram usage:        3 bytes
 Hardware stack levels used:    1
 Hardware stack levels required when called:    6
 This function calls:
		_PHYSetShortRAMAddr
		_memcpy
 This function is called by:
		_MiApp_ProtocolInit
		_MiApp_SetAddressPan
		_MiMAC_SendPacket
		_MiMAC_PowerState
 This function uses a non-reentrant model


 *************** function _memcpy *****************
 Defined at:
		line 11 in file "C:\Program Files (x86)\Microchip\xc8\v1.38\sources\common\memcpy.c"
 Parameters:    Size  Location     Type
  d1              2    2[BANK0 ] PTR void 
		 -> beaconMessageBuffer.parent(8), beaconMessageBuffer.data.parent(8), MSTickGet@tNow(8), list.address(8), 
		 -> list(340), NetworkIssueDataRequest@data(28), NetworkSendDiscoverResponse@databuff(64), NetworkSendDiscoverRequest@databuff(64), 
		 -> userdata(36), NetworkManagerProcessIncomingData@buffer(64), routeInfo.parent(8), NetworkManagerTask@data(37), 
		 -> routeInfo(13), MyAddress(8), TMSendDataToRFD@databuff(64), TransportManagerTask@databuff(64), 
		 -> TMQ(152), TunnelManagerInvalidateTunnel@addr(8), TunnelManagerGetTunnel@addr(8), TunnelManagerGetTunnel@retAddr(8), 
		 -> tunnels(240), TunnelManagerSetTunnel@OldestTick(8), RbcQ(444), LE_processReceivedMessage@ll_addr(8), 
		 -> networkSendBeacon@bt(2), beaconMessageBuffer.data(64), beaconMessageBuffer(84), RouteManagerProcessReceive@from(8), 
		 -> NetworkBroadcastData@databuff(64), radioReceivedPacket@bt(2), myNetworkAddress(2), MAC_PANID(2), 
		 -> ConnectionTable.Address(8), MACRxPacket(13), MiApp_MessageAvailable@src(8), MiApp_UnicastAddress@src(8), 
		 -> MiApp_SetAddressPan@addr(8), MiApp_EstablishConnection@src(8), MiApp_StartConnection@src(8), ConnectionTable(85), 
		 -> myLongAddress(8), Read_MAC_Address@address(8), NULL(0), 
  s1              2    4[BANK0 ] PTR const void 
		 -> Tick_MS(8), address.bytes(8), DeviceManagerBufferDeviceData@address(8), address.bytes(8), 
		 -> IsNetworkDevice@address(8), address.bytes(8), NetworkSetAddressPAN@address(8), NetworkSendDiscoverResponse@databuff(64), 
		 -> NetworkSendDiscoverRequest@databuff(64), NetworkManagerProcessIncomingData@buffer(64), routeInfo.parent.bytes(8), address.bytes(8), 
		 -> NetworkInit@address(8), MyAddress.bytes(8), MyAddress(8), TMSendDataToRFD@databuff(64), 
		 -> TMQ.data(64), TMQ(152), TunnelManagerInvalidateTunnel@device(8), TunnelManagerGetTunnel@device(8), 
		 -> tunnels.parent(8), tunnels.TxTime(8), tunnels(240), neighbor_tbl.ll_addr.bytes(8), 
		 -> neighbor_tbl.ll_addr(8), NetworkBroadcastData@databuff(64), radioReceivedPacket@parent(8), radioReceivedPacket@child(8), 
		 -> source.bytes(8), radioReceivedPacket@source(8), myNetworkAddress(2), MAC_PANID(2), 
		 -> RxBuffer.Payload(127), RxBuffer(256), address.bytes(8), AddNodeToNetworkTable@address(8), 
		 -> srcAddress.bytes(8), srcAddress(8), MiApp_EstablishConnection@src(8), myPANID(2), 
		 -> myLongAddress(8), Read_MAC_Address@addr8(6), NULL(0), TxBuffer(64), 
		 -> main@coord(8), myAddr(8), 
  n               2    6[BANK0 ] unsigned int 
 Auto vars:     Size  Location     Type
  s               2   10[BANK0 ] PTR const unsigned char 
		 -> Tick_MS(8), address.bytes(8), DeviceManagerBufferDeviceData@address(8), address.bytes(8), 
		 -> IsNetworkDevice@address(8), address.bytes(8), NetworkSetAddressPAN@address(8), NetworkSendDiscoverResponse@databuff(64), 
		 -> NetworkSendDiscoverRequest@databuff(64), NetworkManagerProcessIncomingData@buffer(64), routeInfo.parent.bytes(8), address.bytes(8), 
		 -> NetworkInit@address(8), MyAddress.bytes(8), MyAddress(8), TMSendDataToRFD@databuff(64), 
		 -> TMQ.data(64), TMQ(152), TunnelManagerInvalidateTunnel@device(8), TunnelManagerGetTunnel@device(8), 
		 -> tunnels.parent(8), tunnels.TxTime(8), tunnels(240), neighbor_tbl.ll_addr.bytes(8), 
		 -> neighbor_tbl.ll_addr(8), NetworkBroadcastData@databuff(64), radioReceivedPacket@parent(8), radioReceivedPacket@child(8), 
		 -> source.bytes(8), radioReceivedPacket@source(8), myNetworkAddress(2), MAC_PANID(2), 
		 -> RxBuffer.Payload(127), RxBuffer(256), address.bytes(8), AddNodeToNetworkTable@address(8), 
		 -> srcAddress.bytes(8), srcAddress(8), MiApp_EstablishConnection@src(8), myPANID(2), 
		 -> myLongAddress(8), Read_MAC_Address@addr8(6), NULL(0), TxBuffer(64), 
		 -> main@coord(8), myAddr(8), 
  d               2    8[BANK0 ] PTR unsigned char 
		 -> beaconMessageBuffer.parent(8), beaconMessageBuffer.data.parent(8), MSTickGet@tNow(8), list.address(8), 
		 -> list(340), NetworkIssueDataRequest@data(28), NetworkSendDiscoverResponse@databuff(64), NetworkSendDiscoverRequest@databuff(64), 
		 -> userdata(36), NetworkManagerProcessIncomingData@buffer(64), routeInfo.parent(8), NetworkManagerTask@data(37), 
		 -> routeInfo(13), MyAddress(8), TMSendDataToRFD@databuff(64), TransportManagerTask@databuff(64), 
		 -> TMQ(152), TunnelManagerInvalidateTunnel@addr(8), TunnelManagerGetTunnel@addr(8), TunnelManagerGetTunnel@retAddr(8), 
		 -> tunnels(240), TunnelManagerSetTunnel@OldestTick(8), RbcQ(444), LE_processReceivedMessage@ll_addr(8), 
		 -> networkSendBeacon@bt(2), beaconMessageBuffer.data(64), beaconMessageBuffer(84), RouteManagerProcessReceive@from(8), 
		 -> NetworkBroadcastData@databuff(64), radioReceivedPacket@bt(2), myNetworkAddress(2), MAC_PANID(2), 
		 -> ConnectionTable.Address(8), MACRxPacket(13), MiApp_MessageAvailable@src(8), MiApp_UnicastAddress@src(8), 
		 -> MiApp_SetAddressPan@addr(8), MiApp_EstablishConnection@src(8), MiApp_StartConnection@src(8), ConnectionTable(85), 
		 -> myLongAddress(8), Read_MAC_Address@address(8), NULL(0), 
 Return value:  Size  Location     Type
                  2    2[BANK0 ] PTR void 
 Registers used:
		wreg, fsr1l, fsr1h, fsr2l, fsr2h, status,2, status,0
 Tracked objects:
		On entry : 
		On exit  : 
		Unchanged: 
 Data sizes:     COMRAM   BANK0   BANK1   BANK2   BANK3   BANK4   BANK5   BANK6   BANK7   BANK8   BANK9  BANK10  BANK11  BANK12  BANK13  BANK14
      Params:         0       6       0       0       0       0       0       0       0       0       0       0       0       0       0       0
      Locals:         0       4       0       0       0       0       0       0       0       0       0       0       0       0       0       0
      Temps:          0       0       0       0       0       0       0       0       0       0       0       0       0       0       0       0
      Totals:         0      10       0       0       0       0       0       0       0       0       0       0       0       0       0       0
Total ram usage:       10 bytes
 Hardware stack levels used:    1
 Hardware stack levels required when called:    4
 This function calls:
		Nothing
 This function is called by:
		_Read_MAC_Address
		_MiApp_EstablishConnection
		_MiApp_SetAddressPan
		_MiApp_UnicastAddress
		_MiApp_MessageAvailable
		_AddNodeToNetworkTable
		_MiMAC_ReceivedPacket
		_MiMAC_SetAltAddress
		_radioReceivedPacket
		_RouteManagerProcessReceive
		_networkSendBeacon
		_LEAppendNeighborInfo
		_LE_processReceivedMessage
		_BroadcastManagerDelaySend
		_TunnelManagerSetTunnel
		_TunnelManagerGetTunnel
		_TunnelManagerInvalidateTunnel
		_TransportManagerTask
		_TMSendFormedPacketTowardsCoordinator
		_NetworkInit
		_NetworkManagerProcessIncomingData
		_NetworkPrepareSendPacket
		_NetworkSetAddressPAN
		_IsNetworkDevice
		_DeviceManagerBufferDeviceData
		_DeviceManagerGetDeviceData
		_MSTickGet
 This function uses a non-reentrant model


 *************** function _PHYSetShortRAMAddr *****************
 Defined at:
		line 190 in file "../../../../../../framework/driver/mrf_miwi/src/drv_mrf_miwi_mesh_24j40.c"
 Parameters:    Size  Location     Type
  address         1    wreg     unsigned char 
  value           1    2[BANK0 ] unsigned char 
 Auto vars:     Size  Location     Type
  address         1    3[BANK0 ] unsigned char 
  tmpRFIE         1    4[BANK0 ] volatile unsigned char 
 Return value:  Size  Location     Type
                  1    wreg      void 
 Registers used:
		wreg, status,2, cstack
 Tracked objects:
		On entry : 
		On exit  : 
		Unchanged: 
 Data sizes:     COMRAM   BANK0   BANK1   BANK2   BANK3   BANK4   BANK5   BANK6   BANK7   BANK8   BANK9  BANK10  BANK11  BANK12  BANK13  BANK14
      Params:         0       1       0       0       0       0       0       0       0       0       0       0       0       0       0       0
      Locals:         0       2       0       0       0       0       0       0       0       0       0       0       0       0       0       0
      Temps:          0       0       0       0       0       0       0       0       0       0       0       0       0       0       0       0
      Totals:         0       3       0       0       0       0       0       0       0       0       0       0       0       0       0       0
Total ram usage:        3 bytes
 Hardware stack levels used:    1
 Hardware stack levels required when called:    5
 This function calls:
		_SPIPut
 This function is called by:
		_InitMRF24J40
		_MiMAC_SendPacket
		_MiMAC_ChannelAssessment
		_MiMAC_PowerState
		_MiMAC_SetChannel
		_MiMAC_SetAltAddress
 This function uses a non-reentrant model


 *************** function _SPIPut *****************
 Defined at:
		line 226 in file "../src/system_config/miwikit_pic18f46j50_24j40/spi.c"
 Parameters:    Size  Location     Type
  v               1    wreg     unsigned char 
 Auto vars:     Size  Location     Type
  v               1    0[BANK0 ] unsigned char 
  i               1    1[BANK0 ] volatile unsigned char 
 Return value:  Size  Location     Type
                  1    wreg      void 
 Registers used:
		wreg
 Tracked objects:
		On entry : 
		On exit  : 
		Unchanged: 
 Data sizes:     COMRAM   BANK0   BANK1   BANK2   BANK3   BANK4   BANK5   BANK6   BANK7   BANK8   BANK9  BANK10  BANK11  BANK12  BANK13  BANK14
      Params:         0       0       0       0       0       0       0       0       0       0       0       0       0       0       0       0
      Locals:         0       2       0       0       0       0       0       0       0       0       0       0       0       0       0       0
      Temps:          0       0       0       0       0       0       0       0       0       0       0       0       0       0       0       0
      Totals:         0       2       0       0       0       0       0       0       0       0       0       0       0       0       0       0
Total ram usage:        2 bytes
 Hardware stack levels used:    1
 Hardware stack levels required when called:    4
 This function calls:
		Nothing
 This function is called by:
		_SPIGet
		_PHYSetLongRAMAddr
		_PHYSetShortRAMAddr
		_PHYGetShortRAMAddr
		_PHYGetLongRAMAddr
 This function uses a non-reentrant model


 *************** function _LEDManagerTask *****************
 Defined at:
		line 498 in file "../src/system_config/miwikit_pic18f46j50_24j40/system.c"
 Parameters:    Size  Location     Type
		None
 Auto vars:     Size  Location     Type
  i               2   30[BANK0 ] unsigned int 
 Return value:  Size  Location     Type
                  1    wreg      void 
 Registers used:
		wreg, fsr1l, fsr1h, fsr2l, fsr2h, status,2, status,0, cstack
 Tracked objects:
		On entry : 
		On exit  : 
		Unchanged: 
 Data sizes:     COMRAM   BANK0   BANK1   BANK2   BANK3   BANK4   BANK5   BANK6   BANK7   BANK8   BANK9  BANK10  BANK11  BANK12  BANK13  BANK14
      Params:         0       0       0       0       0       0       0       0       0       0       0       0       0       0       0       0
      Locals:         0       2       0       0       0       0       0       0       0       0       0       0       0       0       0       0
      Temps:          0      10       0       0       0       0       0       0       0       0       0       0       0       0       0       0
      Totals:         0      12       0       0       0       0       0       0       0       0       0       0       0       0       0       0
Total ram usage:       12 bytes
 Hardware stack levels used:    1
 Hardware stack levels required when called:    6
 This function calls:
		_MiWi_TickGetMs
 This function is called by:
		_main
 This function uses a non-reentrant model


 *************** function _LCDUpdate *****************
 Defined at:
		line 116 in file "../src/system_config/miwikit_pic18f46j50_24j40/lcd.c"
 Parameters:    Size  Location     Type
		None
 Auto vars:     Size  Location     Type
  i               1   20[BANK0 ] unsigned char 
 Return value:  Size  Location     Type
                  1    wreg      void 
 Registers used:
		wreg, fsr2l, fsr2h, status,2, status,0, prodl, prodh, cstack
 Tracked objects:
		On entry : 
		On exit  : 
		Unchanged: 
 Data sizes:     COMRAM   BANK0   BANK1   BANK2   BANK3   BANK4   BANK5   BANK6   BANK7   BANK8   BANK9  BANK10  BANK11  BANK12  BANK13  BANK14
      Params:         0       0       0       0       0       0       0       0       0       0       0       0       0       0       0       0
      Locals:         0       1       0       0       0       0       0       0       0       0       0       0       0       0       0       0
      Temps:          0       0       0       0       0       0       0       0       0       0       0       0       0       0       0       0
      Totals:         0       1       0       0       0       0       0       0       0       0       0       0       0       0       0       0
Total ram usage:        1 bytes
 Hardware stack levels used:    1
 Hardware stack levels required when called:    7
 This function calls:
		_DelayUS
		_LCDInit
		_LCD_WriteCmd
		_LCD_WriteData
 This function is called by:
		_main
 This function uses a non-reentrant model


 *************** function _LCD_WriteData *****************
 Defined at:
		line 43 in file "../src/system_config/miwikit_pic18f46j50_24j40/lcd.c"
 Parameters:    Size  Location     Type
  data            1    wreg     unsigned char 
 Auto vars:     Size  Location     Type
  data            1    2[BANK0 ] unsigned char 
 Return value:  Size  Location     Type
                  1    wreg      void 
 Registers used:
		wreg, status,2, cstack
 Tracked objects:
		On entry : 
		On exit  : 
		Unchanged: 
 Data sizes:     COMRAM   BANK0   BANK1   BANK2   BANK3   BANK4   BANK5   BANK6   BANK7   BANK8   BANK9  BANK10  BANK11  BANK12  BANK13  BANK14
      Params:         0       0       0       0       0       0       0       0       0       0       0       0       0       0       0       0
      Locals:         0       1       0       0       0       0       0       0       0       0       0       0       0       0       0       0
      Temps:          0       0       0       0       0       0       0       0       0       0       0       0       0       0       0       0
      Totals:         0       1       0       0       0       0       0       0       0       0       0       0       0       0       0       0
Total ram usage:        1 bytes
 Hardware stack levels used:    1
 Hardware stack levels required when called:    5
 This function calls:
		_SPIPut2
 This function is called by:
		_LCDUpdate
 This function uses a non-reentrant model


 *************** function _LCDInit *****************
 Defined at:
		line 55 in file "../src/system_config/miwikit_pic18f46j50_24j40/lcd.c"
 Parameters:    Size  Location     Type
		None
 Auto vars:     Size  Location     Type
		None
 Return value:  Size  Location     Type
                  1    wreg      void 
 Registers used:
		wreg, status,2, status,0, prodl, prodh, cstack
 Tracked objects:
		On entry : 
		On exit  : 
		Unchanged: 
 Data sizes:     COMRAM   BANK0   BANK1   BANK2   BANK3   BANK4   BANK5   BANK6   BANK7   BANK8   BANK9  BANK10  BANK11  BANK12  BANK13  BANK14
      Params:         0       0       0       0       0       0       0       0       0       0       0       0       0       0       0       0
      Locals:         0       0       0       0       0       0       0       0       0       0       0       0       0       0       0       0
      Temps:          0       0       0       0       0       0       0       0       0       0       0       0       0       0       0       0
      Totals:         0       0       0       0       0       0       0       0       0       0       0       0       0       0       0       0
Total ram usage:        0 bytes
 Hardware stack levels used:    1
 Hardware stack levels required when called:    6
 This function calls:
		_DelayMs
		_LCD_WriteCmd
 This function is called by:
		_LCDUpdate
 This function uses a non-reentrant model


 *************** function _LCD_WriteCmd *****************
 Defined at:
		line 31 in file "../src/system_config/miwikit_pic18f46j50_24j40/lcd.c"
 Parameters:    Size  Location     Type
  data            1    wreg     unsigned char 
 Auto vars:     Size  Location     Type
  data            1    2[BANK0 ] unsigned char 
 Return value:  Size  Location     Type
                  1    wreg      void 
 Registers used:
		wreg, status,2, cstack
 Tracked objects:
		On entry : 
		On exit  : 
		Unchanged: 
 Data sizes:     COMRAM   BANK0   BANK1   BANK2   BANK3   BANK4   BANK5   BANK6   BANK7   BANK8   BANK9  BANK10  BANK11  BANK12  BANK13  BANK14
      Params:         0       0       0       0       0       0       0       0       0       0       0       0       0       0       0       0
      Locals:         0       1       0       0       0       0       0       0       0       0       0       0       0       0       0       0
      Temps:          0       0       0       0       0       0       0       0       0       0       0       0       0       0       0       0
      Totals:         0       1       0       0       0       0       0       0       0       0       0       0       0       0       0       0
Total ram usage:        1 bytes
 Hardware stack levels used:    1
 Hardware stack levels required when called:    5
 This function calls:
		_SPIPut2
 This function is called by:
		_LCDInit
		_LCDUpdate
 This function uses a non-reentrant model


 *************** function _SPIPut2 *****************
 Defined at:
		line 332 in file "../src/system_config/miwikit_pic18f46j50_24j40/spi.c"
 Parameters:    Size  Location     Type
  v               1    wreg     unsigned char 
 Auto vars:     Size  Location     Type
  v               1    0[BANK0 ] unsigned char 
  i               1    1[BANK0 ] volatile unsigned char 
 Return value:  Size  Location     Type
                  1    wreg      void 
 Registers used:
		wreg
 Tracked objects:
		On entry : 
		On exit  : 
		Unchanged: 
 Data sizes:     COMRAM   BANK0   BANK1   BANK2   BANK3   BANK4   BANK5   BANK6   BANK7   BANK8   BANK9  BANK10  BANK11  BANK12  BANK13  BANK14
      Params:         0       0       0       0       0       0       0       0       0       0       0       0       0       0       0       0
      Locals:         0       2       0       0       0       0       0       0       0       0       0       0       0       0       0       0
      Temps:          0       0       0       0       0       0       0       0       0       0       0       0       0       0       0       0
      Totals:         0       2       0       0       0       0       0       0       0       0       0       0       0       0       0       0
Total ram usage:        2 bytes
 Hardware stack levels used:    1
 Hardware stack levels required when called:    4
 This function calls:
		Nothing
 This function is called by:
		_LCD_WriteCmd
		_LCD_WriteData
		_SPIGet2
		_EEPROMRead
 This function uses a non-reentrant model


 *************** function _DelayMs *****************
 Defined at:
		line 34 in file "../src/system_config/miwikit_pic18f46j50_24j40/delay.c"
 Parameters:    Size  Location     Type
  ms              4    8[BANK0 ] unsigned long 
 Auto vars:     Size  Location     Type
		None
 Return value:  Size  Location     Type
                  1    wreg      void 
 Registers used:
		wreg, status,2, status,0, prodl, prodh, cstack
 Tracked objects:
		On entry : 
		On exit  : 
		Unchanged: 
 Data sizes:     COMRAM   BANK0   BANK1   BANK2   BANK3   BANK4   BANK5   BANK6   BANK7   BANK8   BANK9  BANK10  BANK11  BANK12  BANK13  BANK14
      Params:         0       4       0       0       0       0       0       0       0       0       0       0       0       0       0       0
      Locals:         0       0       0       0       0       0       0       0       0       0       0       0       0       0       0       0
      Temps:          0       8       0       0       0       0       0       0       0       0       0       0       0       0       0       0
      Totals:         0      12       0       0       0       0       0       0       0       0       0       0       0       0       0       0
Total ram usage:       12 bytes
 Hardware stack levels used:    1
 Hardware stack levels required when called:    5
 This function calls:
		_DelayUS
 This function is called by:
		_LCDInit
		_MiMAC_Init
 This function uses a non-reentrant model


 *************** function _DelayUS *****************
 Defined at:
		line 6 in file "../src/system_config/miwikit_pic18f46j50_24j40/delay.c"
 Parameters:    Size  Location     Type
  delay           4    0[BANK0 ] unsigned long 
 Auto vars:     Size  Location     Type
  i               4    4[BANK0 ] unsigned long 
 Return value:  Size  Location     Type
                  1    wreg      void 
 Registers used:
		wreg, status,2, status,0
 Tracked objects:
		On entry : 
		On exit  : 
		Unchanged: 
 Data sizes:     COMRAM   BANK0   BANK1   BANK2   BANK3   BANK4   BANK5   BANK6   BANK7   BANK8   BANK9  BANK10  BANK11  BANK12  BANK13  BANK14
      Params:         0       4       0       0       0       0       0       0       0       0       0       0       0       0       0       0
      Locals:         0       4       0       0       0       0       0       0       0       0       0       0       0       0       0       0
      Temps:          0       0       0       0       0       0       0       0       0       0       0       0       0       0       0       0
      Totals:         0       8       0       0       0       0       0       0       0       0       0       0       0       0       0       0
Total ram usage:        8 bytes
 Hardware stack levels used:    1
 Hardware stack levels required when called:    4
 This function calls:
		Nothing
 This function is called by:
		_DelayMs
		_LCDUpdate
 This function uses a non-reentrant model


 *************** function _InitSymbolTimer *****************
 Defined at:
		line 101 in file "../src/system_config/miwikit_pic18f46j50_24j40/symbol.c"
 Parameters:    Size  Location     Type
		None
 Auto vars:     Size  Location     Type
		None
 Return value:  Size  Location     Type
                  1    wreg      void 
 Registers used:
		None
 Tracked objects:
		On entry : 
		On exit  : 
		Unchanged: 
 Data sizes:     COMRAM   BANK0   BANK1   BANK2   BANK3   BANK4   BANK5   BANK6   BANK7   BANK8   BANK9  BANK10  BANK11  BANK12  BANK13  BANK14
      Params:         0       0       0       0       0       0       0       0       0       0       0       0       0       0       0       0
      Locals:         0       0       0       0       0       0       0       0       0       0       0       0       0       0       0       0
      Temps:          0       0       0       0       0       0       0       0       0       0       0       0       0       0       0       0
      Totals:         0       0       0       0       0       0       0       0       0       0       0       0       0       0       0       0
Total ram usage:        0 bytes
 Hardware stack levels used:    1
 Hardware stack levels required when called:    4
 This function calls:
		Nothing
 This function is called by:
		_main
 This function uses a non-reentrant model


 *************** function _HardwareInit *****************
 Defined at:
		line 235 in file "../src/system_config/miwikit_pic18f46j50_24j40/system.c"
 Parameters:    Size  Location     Type
		None
 Auto vars:     Size  Location     Type
		None
 Return value:  Size  Location     Type
                  1    wreg      void 
 Registers used:
		wreg, status,2
 Tracked objects:
		On entry : 
		On exit  : 
		Unchanged: 
 Data sizes:     COMRAM   BANK0   BANK1   BANK2   BANK3   BANK4   BANK5   BANK6   BANK7   BANK8   BANK9  BANK10  BANK11  BANK12  BANK13  BANK14
      Params:         0       0       0       0       0       0       0       0       0       0       0       0       0       0       0       0
      Locals:         0       0       0       0       0       0       0       0       0       0       0       0       0       0       0       0
      Temps:          0       0       0       0       0       0       0       0       0       0       0       0       0       0       0       0
      Totals:         0       0       0       0       0       0       0       0       0       0       0       0       0       0       0       0
Total ram usage:        0 bytes
 Hardware stack levels used:    1
 Hardware stack levels required when called:    4
 This function calls:
		Nothing
 This function is called by:
		_main
 This function uses a non-reentrant model


 *************** function _ButtonTask *****************
 Defined at:
		line 427 in file "../src/system_config/miwikit_pic18f46j50_24j40/system.c"
 Parameters:    Size  Location     Type
		None
 Auto vars:     Size  Location     Type
  Sw              1   20[BANK0 ] unsigned char 
 Return value:  Size  Location     Type
                  1    wreg      void 
 Registers used:
		wreg, status,2, status,0, cstack
 Tracked objects:
		On entry : 
		On exit  : 
		Unchanged: 
 Data sizes:     COMRAM   BANK0   BANK1   BANK2   BANK3   BANK4   BANK5   BANK6   BANK7   BANK8   BANK9  BANK10  BANK11  BANK12  BANK13  BANK14
      Params:         0       0       0       0       0       0       0       0       0       0       0       0       0       0       0       0
      Locals:         0       1       0       0       0       0       0       0       0       0       0       0       0       0       0       0
      Temps:          0       0       0       0       0       0       0       0       0       0       0       0       0       0       0       0
      Totals:         0       1       0       0       0       0       0       0       0       0       0       0       0       0       0       0
Total ram usage:        1 bytes
 Hardware stack levels used:    1
 Hardware stack levels required when called:    6
 This function calls:
		_MiWi_TickGetMs
 This function is called by:
		_main
 This function uses a non-reentrant model


 *************** function _MiWi_TickGetMs *****************
 Defined at:
		line 118 in file "../src/system_config/miwikit_pic18f46j50_24j40/symbol.c"
 Parameters:    Size  Location     Type
		None
 Auto vars:     Size  Location     Type
  tnow            4   16[BANK0 ] unsigned long 
 Return value:  Size  Location     Type
                  4   12[BANK0 ] struct MIWI_TICK_t
 Registers used:
		wreg, status,2, status,0, cstack
 Tracked objects:
		On entry : 
		On exit  : 
		Unchanged: 
 Data sizes:     COMRAM   BANK0   BANK1   BANK2   BANK3   BANK4   BANK5   BANK6   BANK7   BANK8   BANK9  BANK10  BANK11  BANK12  BANK13  BANK14
      Params:         0       4       0       0       0       0       0       0       0       0       0       0       0       0       0       0
      Locals:         0       4       0       0       0       0       0       0       0       0       0       0       0       0       0       0
      Temps:          0       0       0       0       0       0       0       0       0       0       0       0       0       0       0       0
      Totals:         0       8       0       0       0       0       0       0       0       0       0       0       0       0       0       0
Total ram usage:        8 bytes
 Hardware stack levels used:    1
 Hardware stack levels required when called:    5
 This function calls:
		_MiWi_TickGet
 This function is called by:
		_ButtonTask
		_LEDManagerTask
		_main
		_MiApp_MessageAvailable
		_MiApp_SearchConnection
		_MiMAC_SendPacket
		_MiMAC_PowerState
 This function uses a non-reentrant model


 *************** function _MiWi_TickGet *****************
 Defined at:
		line 127 in file "../src/system_config/miwikit_pic18f46j50_24j40/symbol.c"
 Parameters:    Size  Location     Type
		None
 Auto vars:     Size  Location     Type
  tmrval          4    8[BANK0 ] unsigned long 
  t1ext           4    4[BANK0 ] unsigned long 
 Return value:  Size  Location     Type
                  4    0[BANK0 ] unsigned long 
 Registers used:
		wreg, status,2, status,0
 Tracked objects:
		On entry : 
		On exit  : 
		Unchanged: 
 Data sizes:     COMRAM   BANK0   BANK1   BANK2   BANK3   BANK4   BANK5   BANK6   BANK7   BANK8   BANK9  BANK10  BANK11  BANK12  BANK13  BANK14
      Params:         0       4       0       0       0       0       0       0       0       0       0       0       0       0       0       0
      Locals:         0       8       0       0       0       0       0       0       0       0       0       0       0       0       0       0
      Temps:          0       0       0       0       0       0       0       0       0       0       0       0       0       0       0       0
      Totals:         0      12       0       0       0       0       0       0       0       0       0       0       0       0       0       0
Total ram usage:       12 bytes
 Hardware stack levels used:    1
 Hardware stack levels required when called:    4
 This function calls:
		Nothing
 This function is called by:
		_MiWi_TickGetMs
 This function uses a non-reentrant model


 *************** function _HighISR *****************
 Defined at:
		line 1615 in file "../../../../../../framework/driver/mrf_miwi/src/drv_mrf_miwi_mesh_24j40.c"
 Parameters:    Size  Location     Type
		None
 Auto vars:     Size  Location     Type
  FrameControl    1   44[COMRAM] unsigned char 
  v               1   43[COMRAM] PTR unsigned char 
		 -> tmpFrameCounter(4), 
  DecryptionSt    1   42[COMRAM] unsigned char 
  results         1   41[COMRAM] unsigned char 
  FrameControl    1   45[COMRAM] unsigned char 
  RxBank          1   50[COMRAM] unsigned char 
  flags           2   46[COMRAM] struct .
  tmr             2   48[COMRAM] unsigned int 
  i               1   52[COMRAM] unsigned char 
  j               1   51[COMRAM] unsigned char 
 Return value:  Size  Location     Type
                  1    wreg      void 
 Registers used:
		wreg, fsr0l, fsr0h, fsr1l, fsr1h, fsr2l, fsr2h, status,2, status,0, tblptrl, tblptrh, tblptru, prodl, prodh, cstack
 Tracked objects:
		On entry : 
		On exit  : 
		Unchanged: 
 Data sizes:     COMRAM   BANK0   BANK1   BANK2   BANK3   BANK4   BANK5   BANK6   BANK7   BANK8   BANK9  BANK10  BANK11  BANK12  BANK13  BANK14
      Params:         0       0       0       0       0       0       0       0       0       0       0       0       0       0       0       0
      Locals:        12       0       0       0       0       0       0       0       0       0       0       0       0       0       0       0
      Temps:         17       0       0       0       0       0       0       0       0       0       0       0       0       0       0       0
      Totals:        29       0       0       0       0       0       0       0       0       0       0       0       0       0       0       0
Total ram usage:       29 bytes
 Hardware stack levels used:    1
 Hardware stack levels required when called:    3
 This function calls:
		i2_PHYGetLongRAMAddr
		i2_PHYGetShortRAMAddr
		i2_PHYSetLongRAMAddr
		i2_PHYSetShortRAMAddr
		i2_isSameAddress
 This function is called by:
		Interrupt level 2
 This function uses a non-reentrant model


 *************** function i2_isSameAddress *****************
 Defined at:
		line 245 in file "../NetworkManager.c"
 Parameters:    Size  Location     Type
  a1              8    8[COMRAM] struct addr_t_def
  a2              8   16[COMRAM] struct addr_t_def
 Auto vars:     Size  Location     Type
		None
 Return value:  Size  Location     Type
                  1    wreg      unsigned char 
 Registers used:
		wreg, fsr1l, fsr1h, fsr2l, fsr2h, status,2, status,0, cstack
 Tracked objects:
		On entry : 
		On exit  : 
		Unchanged: 
 Data sizes:     COMRAM   BANK0   BANK1   BANK2   BANK3   BANK4   BANK5   BANK6   BANK7   BANK8   BANK9  BANK10  BANK11  BANK12  BANK13  BANK14
      Params:        16       0       0       0       0       0       0       0       0       0       0       0       0       0       0       0
      Locals:         0       0       0       0       0       0       0       0       0       0       0       0       0       0       0       0
      Temps:          0       0       0       0       0       0       0       0       0       0       0       0       0       0       0       0
      Totals:        16       0       0       0       0       0       0       0       0       0       0       0       0       0       0       0
Total ram usage:       16 bytes
 Hardware stack levels used:    1
 Hardware stack levels required when called:    1
 This function calls:
		i2_NetworkAddressSizeGet
		i2_memcmp
 This function is called by:
		_HighISR
 This function uses a non-reentrant model


 *************** function i2_memcmp *****************
 Defined at:
		line 3 in file "C:\Program Files (x86)\Microchip\xc8\v1.38\sources\common\memcmp.c"
 Parameters:    Size  Location     Type
  s1              2    0[COMRAM] PTR const void 
		 -> a1.bytes(8), isSameAddress@a1(8), address.bytes(8), isBroadcastAddress@address(8), 
		 -> hc_table(360), src.bytes(8), main@src(8), 
  s2              2    2[COMRAM] PTR const void 
		 -> a2.bytes(8), isSameAddress@a2(8), isBroadcastAddress@addr(8), isKnownPacket@zeros(12), 
		 -> src1.bytes(8), main@src1(8), 
  n               2    4[COMRAM] unsigned int 
 Auto vars:     Size  Location     Type
		None
 Return value:  Size  Location     Type
                  2    0[COMRAM] int 
 Registers used:
		wreg, fsr1l, fsr1h, fsr2l, fsr2h, status,2, status,0
 Tracked objects:
		On entry : 
		On exit  : 
		Unchanged: 
 Data sizes:     COMRAM   BANK0   BANK1   BANK2   BANK3   BANK4   BANK5   BANK6   BANK7   BANK8   BANK9  BANK10  BANK11  BANK12  BANK13  BANK14
      Params:         6       0       0       0       0       0       0       0       0       0       0       0       0       0       0       0
      Locals:         0       0       0       0       0       0       0       0       0       0       0       0       0       0       0       0
      Temps:          2       0       0       0       0       0       0       0       0       0       0       0       0       0       0       0
      Totals:         8       0       0       0       0       0       0       0       0       0       0       0       0       0       0       0
Total ram usage:        8 bytes
 Hardware stack levels used:    1
 This function calls:
		Nothing
 This function is called by:
		i2_isSameAddress
 This function uses a non-reentrant model


 *************** function i2_NetworkAddressSizeGet *****************
 Defined at:
		line 161 in file "../NetworkManager.c"
 Parameters:    Size  Location     Type
		None
 Auto vars:     Size  Location     Type
		None
 Return value:  Size  Location     Type
                  1    wreg      unsigned char 
 Registers used:
		wreg, status,2
 Tracked objects:
		On entry : 
		On exit  : 
		Unchanged: 
 Data sizes:     COMRAM   BANK0   BANK1   BANK2   BANK3   BANK4   BANK5   BANK6   BANK7   BANK8   BANK9  BANK10  BANK11  BANK12  BANK13  BANK14
      Params:         0       0       0       0       0       0       0       0       0       0       0       0       0       0       0       0
      Locals:         0       0       0       0       0       0       0       0       0       0       0       0       0       0       0       0
      Temps:          0       0       0       0       0       0       0       0       0       0       0       0       0       0       0       0
      Totals:         0       0       0       0       0       0       0       0       0       0       0       0       0       0       0       0
Total ram usage:        0 bytes
 Hardware stack levels used:    1
 This function calls:
		Nothing
 This function is called by:
		i2_isSameAddress
 This function uses a non-reentrant model


 *************** function i2_PHYSetShortRAMAddr *****************
 Defined at:
		line 190 in file "../../../../../../framework/driver/mrf_miwi/src/drv_mrf_miwi_mesh_24j40.c"
 Parameters:    Size  Location     Type
  address         1    wreg     unsigned char 
  value           1    2[COMRAM] unsigned char 
 Auto vars:     Size  Location     Type
  address         1    3[COMRAM] unsigned char 
  PHYSetShortR    1    4[COMRAM] volatile unsigned char 
 Return value:  Size  Location     Type
                  1    wreg      void 
 Registers used:
		wreg, status,2, cstack
 Tracked objects:
		On entry : 
		On exit  : 
		Unchanged: 
 Data sizes:     COMRAM   BANK0   BANK1   BANK2   BANK3   BANK4   BANK5   BANK6   BANK7   BANK8   BANK9  BANK10  BANK11  BANK12  BANK13  BANK14
      Params:         1       0       0       0       0       0       0       0       0       0       0       0       0       0       0       0
      Locals:         2       0       0       0       0       0       0       0       0       0       0       0       0       0       0       0
      Temps:          0       0       0       0       0       0       0       0       0       0       0       0       0       0       0       0
      Totals:         3       0       0       0       0       0       0       0       0       0       0       0       0       0       0       0
Total ram usage:        3 bytes
 Hardware stack levels used:    1
 Hardware stack levels required when called:    1
 This function calls:
		i2_SPIPut
 This function is called by:
		_HighISR
 This function uses a non-reentrant model


 *************** function i2_PHYSetLongRAMAddr *****************
 Defined at:
		line 156 in file "../../../../../../framework/driver/mrf_miwi/src/drv_mrf_miwi_mesh_24j40.c"
 Parameters:    Size  Location     Type
  address         2    2[COMRAM] unsigned int 
  value           1    4[COMRAM] unsigned char 
 Auto vars:     Size  Location     Type
  PHYSetLongRA    1    7[COMRAM] volatile unsigned char 
 Return value:  Size  Location     Type
                  1    wreg      void 
 Registers used:
		wreg, status,2, status,0, cstack
 Tracked objects:
		On entry : 
		On exit  : 
		Unchanged: 
 Data sizes:     COMRAM   BANK0   BANK1   BANK2   BANK3   BANK4   BANK5   BANK6   BANK7   BANK8   BANK9  BANK10  BANK11  BANK12  BANK13  BANK14
      Params:         3       0       0       0       0       0       0       0       0       0       0       0       0       0       0       0
      Locals:         1       0       0       0       0       0       0       0       0       0       0       0       0       0       0       0
      Temps:          2       0       0       0       0       0       0       0       0       0       0       0       0       0       0       0
      Totals:         6       0       0       0       0       0       0       0       0       0       0       0       0       0       0       0
Total ram usage:        6 bytes
 Hardware stack levels used:    1
 Hardware stack levels required when called:    1
 This function calls:
		i2_SPIPut
 This function is called by:
		_HighISR
 This function uses a non-reentrant model


 *************** function i2_PHYGetShortRAMAddr *****************
 Defined at:
		line 220 in file "../../../../../../framework/driver/mrf_miwi/src/drv_mrf_miwi_mesh_24j40.c"
 Parameters:    Size  Location     Type
  address         1    wreg     unsigned char 
 Auto vars:     Size  Location     Type
  address         1    2[COMRAM] unsigned char 
  PHYGetShortR    1    4[COMRAM] volatile unsigned char 
  PHYGetShortR    1    3[COMRAM] unsigned char 
 Return value:  Size  Location     Type
                  1    wreg      unsigned char 
 Registers used:
		wreg, status,2, cstack
 Tracked objects:
		On entry : 
		On exit  : 
		Unchanged: 
 Data sizes:     COMRAM   BANK0   BANK1   BANK2   BANK3   BANK4   BANK5   BANK6   BANK7   BANK8   BANK9  BANK10  BANK11  BANK12  BANK13  BANK14
      Params:         0       0       0       0       0       0       0       0       0       0       0       0       0       0       0       0
      Locals:         3       0       0       0       0       0       0       0       0       0       0       0       0       0       0       0
      Temps:          0       0       0       0       0       0       0       0       0       0       0       0       0       0       0       0
      Totals:         3       0       0       0       0       0       0       0       0       0       0       0       0       0       0       0
Total ram usage:        3 bytes
 Hardware stack levels used:    1
 Hardware stack levels required when called:    2
 This function calls:
		i2_SPIGet
		i2_SPIPut
 This function is called by:
		_HighISR
 This function uses a non-reentrant model


 *************** function i2_PHYGetLongRAMAddr *****************
 Defined at:
		line 251 in file "../../../../../../framework/driver/mrf_miwi/src/drv_mrf_miwi_mesh_24j40.c"
 Parameters:    Size  Location     Type
  address         2    2[COMRAM] unsigned int 
 Auto vars:     Size  Location     Type
  PHYGetLongRA    1    7[COMRAM] volatile unsigned char 
  PHYGetLongRA    1    6[COMRAM] unsigned char 
 Return value:  Size  Location     Type
                  1    wreg      unsigned char 
 Registers used:
		wreg, status,2, status,0, cstack
 Tracked objects:
		On entry : 
		On exit  : 
		Unchanged: 
 Data sizes:     COMRAM   BANK0   BANK1   BANK2   BANK3   BANK4   BANK5   BANK6   BANK7   BANK8   BANK9  BANK10  BANK11  BANK12  BANK13  BANK14
      Params:         2       0       0       0       0       0       0       0       0       0       0       0       0       0       0       0
      Locals:         2       0       0       0       0       0       0       0       0       0       0       0       0       0       0       0
      Temps:          2       0       0       0       0       0       0       0       0       0       0       0       0       0       0       0
      Totals:         6       0       0       0       0       0       0       0       0       0       0       0       0       0       0       0
Total ram usage:        6 bytes
 Hardware stack levels used:    1
 Hardware stack levels required when called:    2
 This function calls:
		i2_SPIGet
		i2_SPIPut
 This function is called by:
		_HighISR
 This function uses a non-reentrant model


 *************** function i2_SPIGet *****************
 Defined at:
		line 282 in file "../src/system_config/miwikit_pic18f46j50_24j40/spi.c"
 Parameters:    Size  Location     Type
		None
 Auto vars:     Size  Location     Type
		None
 Return value:  Size  Location     Type
                  1    wreg      unsigned char 
 Registers used:
		wreg, status,2, cstack
 Tracked objects:
		On entry : 
		On exit  : 
		Unchanged: 
 Data sizes:     COMRAM   BANK0   BANK1   BANK2   BANK3   BANK4   BANK5   BANK6   BANK7   BANK8   BANK9  BANK10  BANK11  BANK12  BANK13  BANK14
      Params:         0       0       0       0       0       0       0       0       0       0       0       0       0       0       0       0
      Locals:         0       0       0       0       0       0       0       0       0       0       0       0       0       0       0       0
      Temps:          0       0       0       0       0       0       0       0       0       0       0       0       0       0       0       0
      Totals:         0       0       0       0       0       0       0       0       0       0       0       0       0       0       0       0
Total ram usage:        0 bytes
 Hardware stack levels used:    1
 Hardware stack levels required when called:    1
 This function calls:
		i2_SPIPut
 This function is called by:
		i2_PHYGetShortRAMAddr
		i2_PHYGetLongRAMAddr
 This function uses a non-reentrant model


 *************** function i2_SPIPut *****************
 Defined at:
		line 226 in file "../src/system_config/miwikit_pic18f46j50_24j40/spi.c"
 Parameters:    Size  Location     Type
  v               1    wreg     unsigned char 
 Auto vars:     Size  Location     Type
  v               1    1[COMRAM] unsigned char 
  SPIPut          1    0        volatile unsigned char 
 Return value:  Size  Location     Type
                  1    wreg      void 
 Registers used:
		wreg
 Tracked objects:
		On entry : 
		On exit  : 
		Unchanged: 
 Data sizes:     COMRAM   BANK0   BANK1   BANK2   BANK3   BANK4   BANK5   BANK6   BANK7   BANK8   BANK9  BANK10  BANK11  BANK12  BANK13  BANK14
      Params:         0       0       0       0       0       0       0       0       0       0       0       0       0       0       0       0
      Locals:         2       0       0       0       0       0       0       0       0       0       0       0       0       0       0       0
      Temps:          0       0       0       0       0       0       0       0       0       0       0       0       0       0       0       0
      Totals:         2       0       0       0       0       0       0       0       0       0       0       0       0       0       0       0
Total ram usage:        2 bytes
 Hardware stack levels used:    1
 This function calls:
		Nothing
 This function is called by:
		i2_SPIGet
		i2_PHYSetLongRAMAddr
		i2_PHYSetShortRAMAddr
		i2_PHYGetShortRAMAddr
		i2_PHYGetLongRAMAddr
 This function uses a non-reentrant model



MODULE INFORMATION

Module		Function		Class		Link	Load	Size
../src/system_config/miwikit_pic18f46j50_24j40/lcd.c
		_LCDInit       		CODE           	5552	0000	293
		_LCD_WriteCmd  		CODE           	7B4A	0000	23
		_LCDUpdate     		CODE           	5E7A	0000	183
		_LCD_WriteData 		CODE           	7B34	0000	23

../src/system_config/miwikit_pic18f46j50_24j40/lcd.c estimated size: 522

../src/mainRFD-Sleeping.c
		_EEPROMRead    		CODE           	77DE	0000	47
		_main          		CODE           	1980	0000	933
		_Read_MAC_Address		CODE           	6128	0000	163

../src/mainRFD-Sleeping.c estimated size: 1143

C:\Program Files (x86)\Microchip\xc8\v1.38\sources\common\lwmod.c
		___lwmod       		CODE           	75B6	0000	63

C:\Program Files (x86)\Microchip\xc8\v1.38\sources\common\lwmod.c estimated size: 63

C:\Program Files (x86)\Microchip\xc8\v1.38\sources\common\memcmp.c
		_memcmp        		CODE           	7076	0000	87

C:\Program Files (x86)\Microchip\xc8\v1.38\sources\common\memcmp.c estimated size: 87

../src/system_config/miwikit_pic18f46j50_24j40/system.c
		_BlinkRedLED   		CODE           	7BD6	0000	13
		_isButtonPressed		CODE           	7964	0000	39
		_LEDManagerTask		CODE           	1D24	0000	843
		_LEDCommand    		CODE           	777E	0000	49
		_HardwareInit  		CODE           	6436	0000	145
		_ButtonTask    		CODE           	6D8C	0000	99

../src/system_config/miwikit_pic18f46j50_24j40/system.c estimated size: 1188

../../../../../../framework/driver/mrf_miwi/src/drv_mrf_miwi_mesh_24j40.c
		_PHYGetLongRAMAddr		CODE           	7020	0000	87
		_PHYSetLongRAMAddr		CODE           	70CC	0000	87
		_PHYGetShortRAMAddr		CODE           	77AE	0000	49
		_PHYSetShortRAMAddr		CODE           	7868	0000	47
		_InitMRF24J40  		CODE           	3FFE	0000	425
		_MiMAC_ReceivedPacket		CODE           	0C3C	0000	1351
		_MiMAC_DiscardPacket		CODE           	7A46	0000	27
		_MiMAC_ChannelAssessment		CODE           	766E	0000	61
		_MiMAC_PowerState		CODE           	5308	0000	295
		_MiMAC_SetChannel		CODE           	742A	0000	69
		_MiMAC_Init    		CODE           	66E6	0000	133
		_MiMAC_SendPacket		CODE           	1182	0000	1033
		_MiMAC_SetAltAddress		CODE           	7122	0000	87
		_HighISR       		CODE           	0008	0000	1141

../../../../../../framework/driver/mrf_miwi/src/drv_mrf_miwi_mesh_24j40.c estimated size: 4892

C:\Program Files (x86)\Microchip\xc8\v1.38\sources\common\memcpy.c
		_memcpy        		CODE           	75F4	0000	63

C:\Program Files (x86)\Microchip\xc8\v1.38\sources\common\memcpy.c estimated size: 63

C:\Program Files (x86)\Microchip\xc8\v1.38\sources\common\llmod.c
		___llmod       		CODE           	6D2A	0000	99

C:\Program Files (x86)\Microchip\xc8\v1.38\sources\common\llmod.c estimated size: 99

C:\Program Files (x86)\Microchip\xc8\v1.38\sources\common\Umul16.c
		___wmul        		CODE           	793E	0000	39

C:\Program Files (x86)\Microchip\xc8\v1.38\sources\common\Umul16.c estimated size: 39

../TransportManager.c
		_TransportManagerTask		CODE           	158A	0000	1015
		_TMSendFormedPacketToRFD		CODE           	26BC	0000	781
		_TMSendDataToRFD		CODE           	6C62	0000	101
		_TransportManagerInit		CODE           	7B08	0000	23
		_TransportManagerNoRoute		CODE           	7CBC	0000	3
		_TMSendFormedPacketTowardsCoordinator		CODE           	4F3A	0000	331
		_TransportManagerRouteFound		CODE           	7CBA	0000	3

../TransportManager.c estimated size: 2257

../NetworkManager.c
		_NetworkIssueDataRequest		CODE           	6306	0000	155
		_NetworkInit   		CODE           	577C	0000	263
		_NetworkGetDeviceType		CODE           	7CAC	0000	5
		_NetworkSetDeviceType		CODE           	7C44	0000	11
		_isBroadcastAddress		CODE           	7536	0000	67
		_NetworkGetParentAddress		CODE           	7BB4	0000	21
		_isInvalidAddress		CODE           	7ADC	0000	23
		_NetworkReleaseUserData		CODE           	7C88	0000	5
		_CoordinatorGenericAddress		CODE           	780C	0000	47
		_NetworkAddressSizeGet		CODE           	7CB0	0000	5
		_NetworkSendDiscoverRequest		CODE           	6B26	0000	109
		_isNetworkSecurityEnabled		CODE           	7C90	0000	5
		_CoordinatorAddress		CODE           	7BA0	0000	21
		_NetworkGetPANID		CODE           	7C3A	0000	11
		_NetworkManagerProcessIncomingData		CODE           	2F2A	0000	655
		_IsMemberOfNetwork		CODE           	7C98	0000	5
		_NetworkGetMyRouteInfo		CODE           	7BE2	0000	13
		_NetworkPrepareSendPacket		CODE           	5A62	0000	229
		_NetworkSequence		CODE           	7C7A	0000	7
		_NetworkSendDiscoverResponse		CODE           	6AB6	0000	113
		_NetworkManagerTask		CODE           	2398	0000	805
		_NetworkHasRoute		CODE           	74F4	0000	67
		_NetworkSetAddressPAN		CODE           	6FC4	0000	93
		_isSameAddress 		CODE           	798A	0000	37
		_NetworkManagerGetMyAddress		CODE           	7BEE	0000	13

../NetworkManager.c estimated size: 2785

../TimeTick.c
		_MSTickGet     		CODE           	76E0	0000	55
		_MSTickGetDiffNow		CODE           	676A	0000	129
		_TimeTickISR   		CODE           	774C	0000	51
		_AddMSToTick   		CODE           	6554	0000	139

../TimeTick.c estimated size: 374

../CRC32.c
		_crc32         		CODE           	5FDE	0000	167

../CRC32.c estimated size: 167

../src/Bridge.c
		_MiApp_EstablishConnection		CODE           	6084	0000	165
		_radioDiscardPacket		CODE           	7C80	0000	5
		_MiApp_RequestData		CODE           	7C8C	0000	5
		_MiApp_TransceiverPowerState		CODE           	7B8C	0000	21
		_radioBroadcast		CODE           	6F0A	0000	95
		_MiApp_ProtocolInit		CODE           	6B92	0000	105
		_MiApp_UnicastAddress		CODE           	74B2	0000	67
		_MiApp_GetParentAddress		CODE           	7A2A	0000	29
		_NetworkDiscoveredEvent		CODE           	434A	0000	419
		_MiApp_SetAddressPan		CODE           	6BFA	0000	105
		_SendPacket    		CODE           	6268	0000	159
		_MiApp_SetChannel		CODE           	7C06	0000	13
		_NetworkDataArrivedEvent		CODE           	6E4E	0000	95
		_radioUnicast  		CODE           	6F68	0000	93
		_MiApp_DiscardMessage		CODE           	7C6C	0000	9
		_MiApp_MessageAvailable		CODE           	5676	0000	263
		_MiApp_SearchConnection		CODE           	542E	0000	293
		_AddNodeToNetworkTable		CODE           	3C88	0000	457
		_MiApp_IsMemberOfNetwork		CODE           	7C94	0000	5

../src/Bridge.c estimated size: 2403

../Cache.c
		_isKnownPacket 		CODE           	31B8	0000	623
		_CacheInit     		CODE           	7A94	0000	25

../Cache.c estimated size: 648

../DeviceManager.c
		_IsNetworkDevice		CODE           	41A6	0000	421
		_DeviceManagerInit		CODE           	7A60	0000	27
		_DeviceManagerBufferDeviceData		CODE           	7C26	0000	11
		_DeviceManagerGetDeviceData		CODE           	7C1C	0000	11
		_DeviceManagerGetDeviceType		CODE           	6662	0000	133

../DeviceManager.c estimated size: 603

C:\Program Files (x86)\Microchip\xc8\v1.38\sources\common\lwdiv.c
		___lwdiv       		CODE           	730E	0000	75

C:\Program Files (x86)\Microchip\xc8\v1.38\sources\common\lwdiv.c estimated size: 75

../TunnelManager.c
		_TunnelManagerInvalidateTunnel		CODE           	61CA	0000	159
		_TunnelManagerGetTunnel		CODE           	4AFC	0000	369
		_TunnelManagerSetTunnel		CODE           	3426	0000	623
		_TunnelManagerInit		CODE           	7AF2	0000	23

../TunnelManager.c estimated size: 1174

C:\Program Files (x86)\Microchip\xc8\v1.38\sources\common\awdiv.c
		___awdiv       		CODE           	6866	0000	121

C:\Program Files (x86)\Microchip\xc8\v1.38\sources\common\awdiv.c estimated size: 121

../src/system_config/miwikit_pic18f46j50_24j40/delay.c
		_DelayUS       		CODE           	7896	0000	45
		_DelayMs       		CODE           	63A0	0000	151

../src/system_config/miwikit_pic18f46j50_24j40/delay.c estimated size: 196

../LinkEstimator.c
		_LE_InsertNeighbor		CODE           	5F30	0000	175
		_LE_GetNeighborDeviceType		CODE           	7632	0000	61
		_LE_PinNeighbor		CODE           	73E4	0000	71
		_LELinkQualityGet		CODE           	69CC	0000	119
		_LE_ClearDLQ   		CODE           	6EAC	0000	95
		_le_findWorstNeighborIdx		CODE           	51CA	0000	319
		_le_findEmptyNeighborIdx		CODE           	72C2	0000	77
		_LE_processReceivedMessage		CODE           	4C6C	0000	367
		_le_updateNeighborTableEst		CODE           	29C8	0000	701
		_LE_UnpinNeighbor		CODE           	739E	0000	71
		_LE_RemoveNeighborDevice		CODE           	6A42	0000	117
		_le_findRandomNeighborIdx		CODE           	3ABE	0000	459
		_LinkEstimatorInit		CODE           	7BFA	0000	13
		_LEAppendNeighborInfo		CODE           	4802	0000	387
		_le_computeETX 		CODE           	7578	0000	63
		_le_updateNeighborEntryIdx		CODE           	4DDA	0000	353
		_le_findIdx    		CODE           	6CC6	0000	101
		_le_initNeighborIdx		CODE           	65DE	0000	133
		_le_updateETX  		CODE           	6DEE	0000	97

../LinkEstimator.c estimated size: 3779

C:\Program Files (x86)\Microchip\xc8\v1.38\sources\common\lldiv.c
		___lldiv       		CODE           	6956	0000	119

C:\Program Files (x86)\Microchip\xc8\v1.38\sources\common\lldiv.c estimated size: 119

../krnd.c
		_krndInit      		CODE           	5CFE	0000	195
		_krnd          		CODE           	44EC	0000	397

../krnd.c estimated size: 592

shared
		i2_NetworkAddressSizeGet		CODE           	7CB4	0000	5
		i2_isSameAddress		CODE           	79AE	0000	35
		_crc32_table   		MEDIUMCONST    	FB7F	0000	1025
		i2_PHYGetShortRAMAddr		CODE           	78EC	0000	43
		_mySecurityLevel		MEDIUMCONST    	FF9F	0000	2
		i2_PHYGetLongRAMAddr		CODE           	7272	0000	81
		isBroadcastAddress@F537		MEDIUMCONST    	FF97	0000	9
		i2_PHYSetShortRAMAddr		CODE           	7916	0000	41
		__initialization		CODE           	5C28	0000	201
		i2_PHYSetLongRAMAddr		CODE           	7222	0000	81
		i2_SPIGet      		CODE           	7C58	0000	11
		_hexpowers     		MEDIUMCONST    	FF8F	0000	9
		i2_SPIPut      		CODE           	7B76	0000	23
		i2_memcmp      		CODE           	7178	0000	87
		_mySecurityKey 		MEDIUMCONST    	FF7F	0000	17

shared estimated size: 1670

../src/system_config/miwikit_pic18f46j50_24j40/symbol.c
		_TimerEnterCritical		CODE           	7CA4	0000	5
		_InitSymbolTimer		CODE           	7B60	0000	23
		_MiWi_TickGet  		CODE           	746E	0000	69
		_TimerEnable   		CODE           	7CA0	0000	5
		_MiWi_TickGetMs		CODE           	7716	0000	55
		_TimerExitCritical		CODE           	7C9C	0000	5
		_TimerDisable  		CODE           	7CA8	0000	5

../src/system_config/miwikit_pic18f46j50_24j40/symbol.c estimated size: 167

../BroadcastManager.c
		_BroadcastManagerInit		CODE           	7AAC	0000	25
		_BroadcastManagerDelaySend		CODE           	4678	0000	395
		_BroadcastManagerTask		CODE           	38CE	0000	497

../BroadcastManager.c estimated size: 917

C:\Program Files (x86)\Microchip\xc8\v1.38\sources\common\memset.c
		_memset        		CODE           	78C2	0000	43

C:\Program Files (x86)\Microchip\xc8\v1.38\sources\common\memset.c estimated size: 43

C:\Program Files (x86)\Microchip\xc8\v1.38\sources\common\isdigit.c
		_isdigit       		CODE           	79EE	0000	31

C:\Program Files (x86)\Microchip\xc8\v1.38\sources\common\isdigit.c estimated size: 31

../RouteManager.c
		_RouteManagerTask		CODE           	7358	0000	71
		_RouteManagerPerformUpdate		CODE           	206E	0000	811
		_RouteManagerInit		CODE           	783A	0000	47
		_RouteManagerSetNeighborCongested		CODE           	7CB8	0000	3
		_GetRouteAddressOfChild		CODE           	64C6	0000	143
		_RouteManagerRequestUpdate		CODE           	7C74	0000	7
		_RouteManagerProcessReceive		CODE           	4984	0000	377
		_routingTableFind		CODE           	67EA	0000	125
		_RouterEvicted 		CODE           	5DC0	0000	187
		_RMRoutingTableCount		CODE           	7C30	0000	11
		_RoutingTableFindDeviceOrParent		CODE           	5882	0000	241
		_routingTableUpdateEntry		CODE           	5084	0000	327
		_passLinkEtxThreshold		CODE           	7BC8	0000	15
		_routeInfoInit 		CODE           	71CE	0000	85
		_RouteManagerShouldInsert		CODE           	5972	0000	241

../RouteManager.c estimated size: 2691

../src/system_config/miwikit_pic18f46j50_24j40/spi.c
		_SPIPut2       		CODE           	7AC4	0000	25
		_SPIGet        		CODE           	7C4E	0000	11
		_SPIGet2       		CODE           	7C12	0000	11
		_SPIPut        		CODE           	7A7A	0000	27

../src/system_config/miwikit_pic18f46j50_24j40/spi.c estimated size: 74

C:\Program Files (x86)\Microchip\xc8\v1.38\sources\common\doprnt.c
		_sprintf       		CODE           	2C84	0000	679

C:\Program Files (x86)\Microchip\xc8\v1.38\sources\common\doprnt.c estimated size: 679

../BeaconManager.c
		_netResetInterval		CODE           	7B1E	0000	23
		_BeaconManagerTrigger		CODE           	7C84	0000	5
		_netChooseAdvertiseTime		CODE           	68DE	0000	121
		_netDecayInterval		CODE           	76AA	0000	55
		_MiApp_IsNetworkBusy		CODE           	7CBE	0000	3
		_BeaconManagerTask		CODE           	5B46	0000	227
		_networkSendBeacon		CODE           	3694	0000	571
		_BeaconManagerInit		CODE           	7A0C	0000	31

../BeaconManager.c estimated size: 1036

../NetworkBridge.c
		_NetworkUnicastData		CODE           	3E50	0000	431
		_radioReceivedPacket		CODE           	0480	0000	1981

../NetworkBridge.c estimated size: 2412

